(lp0
(cnumpy.core.multiarray
_reconstruct
p1
(cnumpy
ndarray
p2
(I0
tp3
S'b'
p4
tp5
Rp6
(I1
(I1
tp7
cnumpy
dtype
p8
(S'f8'
p9
I0
I1
tp10
Rp11
(I3
S'<'
p12
NNNI-1
I-1
I0
tp13
bI00
S'\x00\x00\x00\x00\x00\x00\xf0?'
p14
tp15
bg1
(g2
(I0
tp16
g4
tp17
Rp18
(I1
(I1
tp19
g11
I00
S'\x8d\xd5\x97\x8d2M\xdf?'
p20
tp21
bg1
(g2
(I0
tp22
g4
tp23
Rp24
(I1
(I1
tp25
g11
I00
S'\x8d\xc3\x9f\x18kG\xdd?'
p26
tp27
btp28
a(g1
(g2
(I0
tp29
g4
tp30
Rp31
(I1
(I1
tp32
g11
I00
S'\x00\x00\x00\x00\x00\x00\xf0?'
p33
tp34
bg1
(g2
(I0
tp35
g4
tp36
Rp37
(I1
(I1
tp38
g11
I00
S'\x8b\xd9JF\xe5L\xdf?'
p39
tp40
bg1
(g2
(I0
tp41
g4
tp42
Rp43
(I1
(I1
tp44
g11
I00
S'\x11\xac+z#G\xdd?'
p45
tp46
btp47
a(g1
(g2
(I0
tp48
g4
tp49
Rp50
(I1
(I1
tp51
g11
I00
S'\x00\x00\x00\x00\x00\x00\xf0?'
p52
tp53
bg1
(g2
(I0
tp54
g4
tp55
Rp56
(I1
(I1
tp57
g11
I00
S'\xec\x1b\x82\x84\xc9L\xdf?'
p58
tp59
bg1
(g2
(I0
tp60
g4
tp61
Rp62
(I1
(I1
tp63
g11
I00
S'\x06\xc0\xcd\xc0\tG\xdd?'
p64
tp65
btp66
a(g1
(g2
(I0
tp67
g4
tp68
Rp69
(I1
(I1
tp70
g11
I00
S'\x00\x00\x00\x00\x00\x00\xf0?'
p71
tp72
bg1
(g2
(I0
tp73
g4
tp74
Rp75
(I1
(I1
tp76
g11
I00
S'\xd4\xc0XH\xd8L\xdf?'
p77
tp78
bg1
(g2
(I0
tp79
g4
tp80
Rp81
(I1
(I1
tp82
g11
I00
S'\xeb\xa1\xcfo\x17G\xdd?'
p83
tp84
btp85
a(g1
(g2
(I0
tp86
g4
tp87
Rp88
(I1
(I1
tp89
g11
I00
S'\x00\x00\x00\x00\x00\x00\xf0?'
p90
tp91
bg1
(g2
(I0
tp92
g4
tp93
Rp94
(I1
(I1
tp95
g11
I00
S'm\x07\xf3\xba\xd3L\xdf?'
p96
tp97
bg1
(g2
(I0
tp98
g4
tp99
Rp100
(I1
(I1
tp101
g11
I00
S'\xb4\n\xc47\x13G\xdd?'
p102
tp103
btp104
a(g1
(g2
(I0
tp105
g4
tp106
Rp107
(I1
(I1
tp108
g11
I00
S'\x00\x00\x00\x00\x00\x00\xf0?'
p109
tp110
bg1
(g2
(I0
tp111
g4
tp112
Rp113
(I1
(I1
tp114
g11
I00
S'T\xdb\xe7\x00\xd7L\xdf?'
p115
tp116
bg1
(g2
(I0
tp117
g4
tp118
Rp119
(I1
(I1
tp120
g11
I00
S'\xb3\xf2Y@\x16G\xdd?'
p121
tp122
btp123
a(g1
(g2
(I0
tp124
g4
tp125
Rp126
(I1
(I1
tp127
g11
I00
S'\x00\x00\x00\x00\x00\x00\xf0?'
p128
tp129
bg1
(g2
(I0
tp130
g4
tp131
Rp132
(I1
(I1
tp133
g11
I00
S's8\xdc\x15\x87L\xdf?'
p134
tp135
bg1
(g2
(I0
tp136
g4
tp137
Rp138
(I1
(I1
tp139
g11
I00
S'e\x0f\xbd/\xccF\xdd?'
p140
tp141
btp142
a(g1
(g2
(I0
tp143
g4
tp144
Rp145
(I1
(I1
tp146
g11
I00
S'\x00\x00\x00\x00\x00\x00\xf0?'
p147
tp148
bg1
(g2
(I0
tp149
g4
tp150
Rp151
(I1
(I1
tp152
g11
I00
S'\t:\x12E\xf6L\xdf?'
p153
tp154
bg1
(g2
(I0
tp155
g4
tp156
Rp157
(I1
(I1
tp158
g11
I00
S'\x8aFO:3G\xdd?'
p159
tp160
btp161
a(g1
(g2
(I0
tp162
g4
tp163
Rp164
(I1
(I1
tp165
g11
I00
S'\x00\x00\x00\x00\x00\x00\xf0?'
p166
tp167
bg1
(g2
(I0
tp168
g4
tp169
Rp170
(I1
(I1
tp171
g11
I00
S'w\x9d\xf9\x07\x8dL\xdf?'
p172
tp173
bg1
(g2
(I0
tp174
g4
tp175
Rp176
(I1
(I1
tp177
g11
I00
S'\xc6\xb0^\xb2\xd1F\xdd?'
p178
tp179
btp180
a(g1
(g2
(I0
tp181
g4
tp182
Rp183
(I1
(I1
tp184
g11
I00
S'\x00\x00\x00\x00\x00\x00\xf0?'
p185
tp186
bg1
(g2
(I0
tp187
g4
tp188
Rp189
(I1
(I1
tp190
g11
I00
S'\x9e\xe7\xb0|\x85L\xdf?'
p191
tp192
bg1
(g2
(I0
tp193
g4
tp194
Rp195
(I1
(I1
tp196
g11
I00
S'\x8a\xb7\x89\xb4\xcaF\xdd?'
p197
tp198
btp199
a(g1
(g2
(I0
tp200
g4
tp201
Rp202
(I1
(I1
tp203
g11
I00
S'\x00\x00\x00\x00\x00\x00\xf0?'
p204
tp205
bg1
(g2
(I0
tp206
g4
tp207
Rp208
(I1
(I1
tp209
g11
I00
S'~s\xb3m\x02M\xdf?'
p210
tp211
bg1
(g2
(I0
tp212
g4
tp213
Rp214
(I1
(I1
tp215
g11
I00
S'L\x18\xfb~>G\xdd?'
p216
tp217
btp218
a(g1
(g2
(I0
tp219
g4
tp220
Rp221
(I1
(I1
tp222
g11
I00
S'\x00\x00\x00\x00\x00\x00\xf0?'
p223
tp224
bg1
(g2
(I0
tp225
g4
tp226
Rp227
(I1
(I1
tp228
g11
I00
S'J&\xfb\xd2MM\xdf?'
p229
tp230
bg1
(g2
(I0
tp231
g4
tp232
Rp233
(I1
(I1
tp234
g11
I00
S'\x00\x19\xbe^\x84G\xdd?'
p235
tp236
btp237
a(g1
(g2
(I0
tp238
g4
tp239
Rp240
(I1
(I1
tp241
g11
I00
S'\x00\x00\x00\x00\x00\x00\xf0?'
p242
tp243
bg1
(g2
(I0
tp244
g4
tp245
Rp246
(I1
(I1
tp247
g11
I00
S'\x83\xf2\x96)\x99L\xdf?'
p248
tp249
bg1
(g2
(I0
tp250
g4
tp251
Rp252
(I1
(I1
tp253
g11
I00
S':\xe3\x85\xf0\xdcF\xdd?'
p254
tp255
btp256
a(g1
(g2
(I0
tp257
g4
tp258
Rp259
(I1
(I1
tp260
g11
I00
S'\x00\x00\x00\x00\x00\x00\xf0?'
p261
tp262
bg1
(g2
(I0
tp263
g4
tp264
Rp265
(I1
(I1
tp266
g11
I00
S'\xf7\xea\xe0|pL\xdf?'
p267
tp268
bg1
(g2
(I0
tp269
g4
tp270
Rp271
(I1
(I1
tp272
g11
I00
S'F\xa9w>\xb7F\xdd?'
p273
tp274
btp275
a(g1
(g2
(I0
tp276
g4
tp277
Rp278
(I1
(I1
tp279
g11
I00
S'\x00\x00\x00\x00\x00\x00\xf0?'
p280
tp281
bg1
(g2
(I0
tp282
g4
tp283
Rp284
(I1
(I1
tp285
g11
I00
S'w]\xb8\xc3jM\xdf?'
p286
tp287
bg1
(g2
(I0
tp288
g4
tp289
Rp290
(I1
(I1
tp291
g11
I00
S'\xb20\xed0\x9fG\xdd?'
p292
tp293
btp294
a(g1
(g2
(I0
tp295
g4
tp296
Rp297
(I1
(I1
tp298
g11
I00
S'\x00\x00\x00\x00\x00\x00\xf0?'
p299
tp300
bg1
(g2
(I0
tp301
g4
tp302
Rp303
(I1
(I1
tp304
g11
I00
S'\x9c\x9e\xd05\xe5L\xdf?'
p305
tp306
bg1
(g2
(I0
tp307
g4
tp308
Rp309
(I1
(I1
tp310
g11
I00
S'A`\xe6j#G\xdd?'
p311
tp312
btp313
a(g1
(g2
(I0
tp314
g4
tp315
Rp316
(I1
(I1
tp317
g11
I00
S'\x00\x00\x00\x00\x00\x00\xf0?'
p318
tp319
bg1
(g2
(I0
tp320
g4
tp321
Rp322
(I1
(I1
tp323
g11
I00
S'\x02s&\xa5\xe0L\xdf?'
p324
tp325
bg1
(g2
(I0
tp326
g4
tp327
Rp328
(I1
(I1
tp329
g11
I00
S'\x1cg\xd3/\x1fG\xdd?'
p330
tp331
btp332
a(g1
(g2
(I0
tp333
g4
tp334
Rp335
(I1
(I1
tp336
g11
I00
S'\x00\x00\x00\x00\x00\x00\xf0?'
p337
tp338
bg1
(g2
(I0
tp339
g4
tp340
Rp341
(I1
(I1
tp342
g11
I00
S'l\xe2\xf8\xdc\x92L\xdf?'
p343
tp344
bg1
(g2
(I0
tp345
g4
tp346
Rp347
(I1
(I1
tp348
g11
I00
S'\xc5D\x04\x1a\xd7F\xdd?'
p349
tp350
btp351
a(g1
(g2
(I0
tp352
g4
tp353
Rp354
(I1
(I1
tp355
g11
I00
S'\x00\x00\x00\x00\x00\x00\xf0?'
p356
tp357
bg1
(g2
(I0
tp358
g4
tp359
Rp360
(I1
(I1
tp361
g11
I00
S'\xa9\xd7\xa7=\xa1L\xdf?'
p362
tp363
bg1
(g2
(I0
tp364
g4
tp365
Rp366
(I1
(I1
tp367
g11
I00
S'\xcb\xe8\x1em\xe4F\xdd?'
p368
tp369
btp370
a(g1
(g2
(I0
tp371
g4
tp372
Rp373
(I1
(I1
tp374
g11
I00
S'\x00\x00\x00\x00\x00\x00\xf0?'
p375
tp376
bg1
(g2
(I0
tp377
g4
tp378
Rp379
(I1
(I1
tp380
g11
I00
S'v\x0ew\xef\xa6L\xdf?'
p381
tp382
bg1
(g2
(I0
tp383
g4
tp384
Rp385
(I1
(I1
tp386
g11
I00
S'\x7f\x95(\xb4\xe9F\xdd?'
p387
tp388
btp389
a(g1
(g2
(I0
tp390
g4
tp391
Rp392
(I1
(I1
tp393
g11
I00
S'\x00\x00\x00\x00\x00\x00\xf0?'
p394
tp395
bg1
(g2
(I0
tp396
g4
tp397
Rp398
(I1
(I1
tp399
g11
I00
S']\x9e]\x1d\xfaL\xdf?'
p400
tp401
bg1
(g2
(I0
tp402
g4
tp403
Rp404
(I1
(I1
tp405
g11
I00
S'\x1c|\x84\xca6G\xdd?'
p406
tp407
btp408
a(g1
(g2
(I0
tp409
g4
tp410
Rp411
(I1
(I1
tp412
g11
I00
S'\x00\x00\x00\x00\x00\x00\xf0?'
p413
tp414
bg1
(g2
(I0
tp415
g4
tp416
Rp417
(I1
(I1
tp418
g11
I00
S'\x8az\x96\t\xd9L\xdf?'
p419
tp420
bg1
(g2
(I0
tp421
g4
tp422
Rp423
(I1
(I1
tp424
g11
I00
S'GE\xe6"\x18G\xdd?'
p425
tp426
btp427
a(g1
(g2
(I0
tp428
g4
tp429
Rp430
(I1
(I1
tp431
g11
I00
S'\x00\x00\x00\x00\x00\x00\xf0?'
p432
tp433
bg1
(g2
(I0
tp434
g4
tp435
Rp436
(I1
(I1
tp437
g11
I00
S'L\x80bn\x80L\xdf?'
p438
tp439
bg1
(g2
(I0
tp440
g4
tp441
Rp442
(I1
(I1
tp443
g11
I00
S'$\xc5\x07\x05\xc6F\xdd?'
p444
tp445
btp446
a(g1
(g2
(I0
tp447
g4
tp448
Rp449
(I1
(I1
tp450
g11
I00
S'\x00\x00\x00\x00\x00\x00\xf0?'
p451
tp452
bg1
(g2
(I0
tp453
g4
tp454
Rp455
(I1
(I1
tp456
g11
I00
S'\xa9\n\xa2^uL\xdf?'
p457
tp458
bg1
(g2
(I0
tp459
g4
tp460
Rp461
(I1
(I1
tp462
g11
I00
S'+l\xaf\xc4\xbbF\xdd?'
p463
tp464
btp465
a(g1
(g2
(I0
tp466
g4
tp467
Rp468
(I1
(I1
tp469
g11
I00
S'\x00\x00\x00\x00\x00\x00\xf0?'
p470
tp471
bg1
(g2
(I0
tp472
g4
tp473
Rp474
(I1
(I1
tp475
g11
I00
S'\xa4\xb2\x8d!\x11M\xdf?'
p476
tp477
bg1
(g2
(I0
tp478
g4
tp479
Rp480
(I1
(I1
tp481
g11
I00
S'\xe9\x16/\x1fLG\xdd?'
p482
tp483
btp484
a(g1
(g2
(I0
tp485
g4
tp486
Rp487
(I1
(I1
tp488
g11
I00
S'\x00\x00\x00\x00\x00\x00\xf0?'
p489
tp490
bg1
(g2
(I0
tp491
g4
tp492
Rp493
(I1
(I1
tp494
g11
I00
S'\xb8{1_\x8fM\xdf?'
p495
tp496
bg1
(g2
(I0
tp497
g4
tp498
Rp499
(I1
(I1
tp500
g11
I00
S'\x86& \x1e\xc1G\xdd?'
p501
tp502
btp503
a(g1
(g2
(I0
tp504
g4
tp505
Rp506
(I1
(I1
tp507
g11
I00
S'\x00\x00\x00\x00\x00\x00\xf0?'
p508
tp509
bg1
(g2
(I0
tp510
g4
tp511
Rp512
(I1
(I1
tp513
g11
I00
S'\xb0\xd7\xf9\xa3\xefL\xdf?'
p514
tp515
bg1
(g2
(I0
tp516
g4
tp517
Rp518
(I1
(I1
tp519
g11
I00
S'\xea;\x81\x15-G\xdd?'
p520
tp521
btp522
a(g1
(g2
(I0
tp523
g4
tp524
Rp525
(I1
(I1
tp526
g11
I00
S'\x00\x00\x00\x00\x00\x00\xf0?'
p527
tp528
bg1
(g2
(I0
tp529
g4
tp530
Rp531
(I1
(I1
tp532
g11
I00
S'7\xc3\xf3\x7f\xacL\xdf?'
p533
tp534
bg1
(g2
(I0
tp535
g4
tp536
Rp537
(I1
(I1
tp538
g11
I00
S'\x9d\xa3P\xdc\xeeF\xdd?'
p539
tp540
btp541
a(g1
(g2
(I0
tp542
g4
tp543
Rp544
(I1
(I1
tp545
g11
I00
S'\x00\x00\x00\x00\x00\x00\xf0?'
p546
tp547
bg1
(g2
(I0
tp548
g4
tp549
Rp550
(I1
(I1
tp551
g11
I00
S'~\xd3\xc9\x96\xebL\xdf?'
p552
tp553
bg1
(g2
(I0
tp554
g4
tp555
Rp556
(I1
(I1
tp557
g11
I00
S'U7GT)G\xdd?'
p558
tp559
btp560
a(g1
(g2
(I0
tp561
g4
tp562
Rp563
(I1
(I1
tp564
g11
I00
S'\x00\x00\x00\x00\x00\x00\xf0?'
p565
tp566
bg1
(g2
(I0
tp567
g4
tp568
Rp569
(I1
(I1
tp570
g11
I00
S'\xb2c=\xe2\xe2L\xdf?'
p571
tp572
bg1
(g2
(I0
tp573
g4
tp574
Rp575
(I1
(I1
tp576
g11
I00
S's\x86\xf1B!G\xdd?'
p577
tp578
btp579
a(g1
(g2
(I0
tp580
g4
tp581
Rp582
(I1
(I1
tp583
g11
I00
S'\x00\x00\x00\x00\x00\x00\xf0?'
p584
tp585
bg1
(g2
(I0
tp586
g4
tp587
Rp588
(I1
(I1
tp589
g11
I00
S'Y\xc0C\xec\xf1L\xdf?'
p590
tp591
bg1
(g2
(I0
tp592
g4
tp593
Rp594
(I1
(I1
tp595
g11
I00
S'\xdew\x003/G\xdd?'
p596
tp597
btp598
a(g1
(g2
(I0
tp599
g4
tp600
Rp601
(I1
(I1
tp602
g11
I00
S'\x00\x00\x00\x00\x00\x00\xf0?'
p603
tp604
bg1
(g2
(I0
tp605
g4
tp606
Rp607
(I1
(I1
tp608
g11
I00
S'\x93\x93$^\x03M\xdf?'
p609
tp610
bg1
(g2
(I0
tp611
g4
tp612
Rp613
(I1
(I1
tp614
g11
I00
S'\x9dK\xd0]?G\xdd?'
p615
tp616
btp617
a(g1
(g2
(I0
tp618
g4
tp619
Rp620
(I1
(I1
tp621
g11
I00
S'\x00\x00\x00\x00\x00\x00\xf0?'
p622
tp623
bg1
(g2
(I0
tp624
g4
tp625
Rp626
(I1
(I1
tp627
g11
I00
S'\x0e*\x82M\xdaL\xdf?'
p628
tp629
bg1
(g2
(I0
tp630
g4
tp631
Rp632
(I1
(I1
tp633
g11
I00
S'\x91\xc1\x18O\x19G\xdd?'
p634
tp635
btp636
a(g1
(g2
(I0
tp637
g4
tp638
Rp639
(I1
(I1
tp640
g11
I00
S'\x00\x00\x00\x00\x00\x00\xf0?'
p641
tp642
bg1
(g2
(I0
tp643
g4
tp644
Rp645
(I1
(I1
tp646
g11
I00
S'*\x06\xcc\x1a6M\xdf?'
p647
tp648
bg1
(g2
(I0
tp649
g4
tp650
Rp651
(I1
(I1
tp652
g11
I00
S'\x83T>cnG\xdd?'
p653
tp654
btp655
a(g1
(g2
(I0
tp656
g4
tp657
Rp658
(I1
(I1
tp659
g11
I00
S'\x00\x00\x00\x00\x00\x00\xf0?'
p660
tp661
bg1
(g2
(I0
tp662
g4
tp663
Rp664
(I1
(I1
tp665
g11
I00
S'EM\xcf\x93\x89L\xdf?'
p666
tp667
bg1
(g2
(I0
tp668
g4
tp669
Rp670
(I1
(I1
tp671
g11
I00
S'\xd3\x86\xf6~\xceF\xdd?'
p672
tp673
btp674
a(g1
(g2
(I0
tp675
g4
tp676
Rp677
(I1
(I1
tp678
g11
I00
S'\x00\x00\x00\x00\x00\x00\xf0?'
p679
tp680
bg1
(g2
(I0
tp681
g4
tp682
Rp683
(I1
(I1
tp684
g11
I00
S'o$\xb3\x1c\xcaL\xdf?'
p685
tp686
bg1
(g2
(I0
tp687
g4
tp688
Rp689
(I1
(I1
tp690
g11
I00
S'\xa7N\xd9M\nG\xdd?'
p691
tp692
btp693
a(g1
(g2
(I0
tp694
g4
tp695
Rp696
(I1
(I1
tp697
g11
I00
S'\x00\x00\x00\x00\x00\x00\xf0?'
p698
tp699
bg1
(g2
(I0
tp700
g4
tp701
Rp702
(I1
(I1
tp703
g11
I00
S'\xe7!]%\xa3L\xdf?'
p704
tp705
bg1
(g2
(I0
tp706
g4
tp707
Rp708
(I1
(I1
tp709
g11
I00
S'\xf3\xc9\x1b1\xe6F\xdd?'
p710
tp711
btp712
a(g1
(g2
(I0
tp713
g4
tp714
Rp715
(I1
(I1
tp716
g11
I00
S'\x00\x00\x00\x00\x00\x00\xf0?'
p717
tp718
bg1
(g2
(I0
tp719
g4
tp720
Rp721
(I1
(I1
tp722
g11
I00
S'\xce\xd5\xdb/\xdcL\xdf?'
p723
tp724
bg1
(g2
(I0
tp725
g4
tp726
Rp727
(I1
(I1
tp728
g11
I00
S't\xd5\x1e\x0e\x1bG\xdd?'
p729
tp730
btp731
a(g1
(g2
(I0
tp732
g4
tp733
Rp734
(I1
(I1
tp735
g11
I00
S'\x00\x00\x00\x00\x00\x00\xf0?'
p736
tp737
bg1
(g2
(I0
tp738
g4
tp739
Rp740
(I1
(I1
tp741
g11
I00
S'\xd90\x85\xd4EM\xdf?'
p742
tp743
bg1
(g2
(I0
tp744
g4
tp745
Rp746
(I1
(I1
tp747
g11
I00
S'\xb2Q&\xf6|G\xdd?'
p748
tp749
btp750
a(g1
(g2
(I0
tp751
g4
tp752
Rp753
(I1
(I1
tp754
g11
I00
S'\x00\x00\x00\x00\x00\x00\xf0?'
p755
tp756
bg1
(g2
(I0
tp757
g4
tp758
Rp759
(I1
(I1
tp760
g11
I00
S'\x01\xe4 \xc0\\M\xdf?'
p761
tp762
bg1
(g2
(I0
tp763
g4
tp764
Rp765
(I1
(I1
tp766
g11
I00
S"\x9e'\x0f4\x92G\xdd?"
p767
tp768
btp769
a(g1
(g2
(I0
tp770
g4
tp771
Rp772
(I1
(I1
tp773
g11
I00
S'\x00\x00\x00\x00\x00\x00\xf0?'
p774
tp775
bg1
(g2
(I0
tp776
g4
tp777
Rp778
(I1
(I1
tp779
g11
I00
S'\xd3JU_iL\xdf?'
p780
tp781
bg1
(g2
(I0
tp782
g4
tp783
Rp784
(I1
(I1
tp785
g11
I00
S'\x03\xd6V\xa6\xb0F\xdd?'
p786
tp787
btp788
a(g1
(g2
(I0
tp789
g4
tp790
Rp791
(I1
(I1
tp792
g11
I00
S'\x00\x00\x00\x00\x00\x00\xf0?'
p793
tp794
bg1
(g2
(I0
tp795
g4
tp796
Rp797
(I1
(I1
tp798
g11
I00
S'\xf4\x90\x96^hM\xdf?'
p799
tp800
bg1
(g2
(I0
tp801
g4
tp802
Rp803
(I1
(I1
tp804
g11
I00
S'\xac\xe0\xb1\xf8\x9cG\xdd?'
p805
tp806
btp807
a(g1
(g2
(I0
tp808
g4
tp809
Rp810
(I1
(I1
tp811
g11
I00
S'\x00\x00\x00\x00\x00\x00\xf0?'
p812
tp813
bg1
(g2
(I0
tp814
g4
tp815
Rp816
(I1
(I1
tp817
g11
I00
S'[v\x89\xe7\x9fL\xdf?'
p818
tp819
bg1
(g2
(I0
tp820
g4
tp821
Rp822
(I1
(I1
tp823
g11
I00
S'\xda-\x0f0\xe3F\xdd?'
p824
tp825
btp826
a(g1
(g2
(I0
tp827
g4
tp828
Rp829
(I1
(I1
tp830
g11
I00
S'\x00\x00\x00\x00\x00\x00\xf0?'
p831
tp832
bg1
(g2
(I0
tp833
g4
tp834
Rp835
(I1
(I1
tp836
g11
I00
S'k#&4\x96L\xdf?'
p837
tp838
bg1
(g2
(I0
tp839
g4
tp840
Rp841
(I1
(I1
tp842
g11
I00
S'\x16\x03\x8f2\xdaF\xdd?'
p843
tp844
btp845
a(g1
(g2
(I0
tp846
g4
tp847
Rp848
(I1
(I1
tp849
g11
I00
S'\x00\x00\x00\x00\x00\x00\xf0?'
p850
tp851
bg1
(g2
(I0
tp852
g4
tp853
Rp854
(I1
(I1
tp855
g11
I00
S'\xde\xc1\xc6\xb1\xfaL\xdf?'
p856
tp857
bg1
(g2
(I0
tp858
g4
tp859
Rp860
(I1
(I1
tp861
g11
I00
S'\r!\x0fT7G\xdd?'
p862
tp863
btp864
a(g1
(g2
(I0
tp865
g4
tp866
Rp867
(I1
(I1
tp868
g11
I00
S'\x00\x00\x00\x00\x00\x00\xf0?'
p869
tp870
bg1
(g2
(I0
tp871
g4
tp872
Rp873
(I1
(I1
tp874
g11
I00
S'sdh\xdf\x94L\xdf?'
p875
tp876
bg1
(g2
(I0
tp877
g4
tp878
Rp879
(I1
(I1
tp880
g11
I00
S'4#\xc6\xf6\xd8F\xdd?'
p881
tp882
btp883
a(g1
(g2
(I0
tp884
g4
tp885
Rp886
(I1
(I1
tp887
g11
I00
S'\x00\x00\x00\x00\x00\x00\xf0?'
p888
tp889
bg1
(g2
(I0
tp890
g4
tp891
Rp892
(I1
(I1
tp893
g11
I00
S'\xf7\xbf\xf1\xd4\xc0L\xdf?'
p894
tp895
bg1
(g2
(I0
tp896
g4
tp897
Rp898
(I1
(I1
tp899
g11
I00
S'd\xaa\x17\xb4\x01G\xdd?'
p900
tp901
btp902
a(g1
(g2
(I0
tp903
g4
tp904
Rp905
(I1
(I1
tp906
g11
I00
S'\x00\x00\x00\x00\x00\x00\xf0?'
p907
tp908
bg1
(g2
(I0
tp909
g4
tp910
Rp911
(I1
(I1
tp912
g11
I00
S'|\x0f(r\xc8L\xdf?'
p913
tp914
bg1
(g2
(I0
tp915
g4
tp916
Rp917
(I1
(I1
tp918
g11
I00
S'\x9b\x97\x8b\xc2\x08G\xdd?'
p919
tp920
btp921
a(g1
(g2
(I0
tp922
g4
tp923
Rp924
(I1
(I1
tp925
g11
I00
S'\x00\x00\x00\x00\x00\x00\xf0?'
p926
tp927
bg1
(g2
(I0
tp928
g4
tp929
Rp930
(I1
(I1
tp931
g11
I00
S'*\xac\xbd\xd1\xdbL\xdf?'
p932
tp933
bg1
(g2
(I0
tp934
g4
tp935
Rp936
(I1
(I1
tp937
g11
I00
S'lI\xe5\xb6\x1aG\xdd?'
p938
tp939
btp940
a(g1
(g2
(I0
tp941
g4
tp942
Rp943
(I1
(I1
tp944
g11
I00
S'\x00\x00\x00\x00\x00\x00\xf0?'
p945
tp946
bg1
(g2
(I0
tp947
g4
tp948
Rp949
(I1
(I1
tp950
g11
I00
S'\x01\xc5S\x03\x82L\xdf?'
p951
tp952
bg1
(g2
(I0
tp953
g4
tp954
Rp955
(I1
(I1
tp956
g11
I00
S'\x8fJP|\xc7F\xdd?'
p957
tp958
btp959
a(g1
(g2
(I0
tp960
g4
tp961
Rp962
(I1
(I1
tp963
g11
I00
S'\x00\x00\x00\x00\x00\x00\xf0?'
p964
tp965
bg1
(g2
(I0
tp966
g4
tp967
Rp968
(I1
(I1
tp969
g11
I00
S'\x86~B\x85\x1cM\xdf?'
p970
tp971
bg1
(g2
(I0
tp972
g4
tp973
Rp974
(I1
(I1
tp975
g11
I00
S'\x18\x86[\xadVG\xdd?'
p976
tp977
btp978
a(g1
(g2
(I0
tp979
g4
tp980
Rp981
(I1
(I1
tp982
g11
I00
S'\x00\x00\x00\x00\x00\x00\xf0?'
p983
tp984
bg1
(g2
(I0
tp985
g4
tp986
Rp987
(I1
(I1
tp988
g11
I00
S'wf\x98\xac\x87L\xdf?'
p989
tp990
bg1
(g2
(I0
tp991
g4
tp992
Rp993
(I1
(I1
tp994
g11
I00
S'\xdf\xf0n\xbb\xccF\xdd?'
p995
tp996
btp997
a(g1
(g2
(I0
tp998
g4
tp999
Rp1000
(I1
(I1
tp1001
g11
I00
S'\x00\x00\x00\x00\x00\x00\xf0?'
p1002
tp1003
bg1
(g2
(I0
tp1004
g4
tp1005
Rp1006
(I1
(I1
tp1007
g11
I00
S'm\xa1\xe4\x08sL\xdf?'
p1008
tp1009
bg1
(g2
(I0
tp1010
g4
tp1011
Rp1012
(I1
(I1
tp1013
g11
I00
S'\x1f\xd9\xb9\x9a\xb9F\xdd?'
p1014
tp1015
btp1016
a(g1
(g2
(I0
tp1017
g4
tp1018
Rp1019
(I1
(I1
tp1020
g11
I00
S'\x00\x00\x00\x00\x00\x00\xf0?'
p1021
tp1022
bg1
(g2
(I0
tp1023
g4
tp1024
Rp1025
(I1
(I1
tp1026
g11
I00
S'\xa9\\\xac\xb1\x9bL\xdf?'
p1027
tp1028
bg1
(g2
(I0
tp1029
g4
tp1030
Rp1031
(I1
(I1
tp1032
g11
I00
S'\x11\xd3#I\xdfF\xdd?'
p1033
tp1034
btp1035
a(g1
(g2
(I0
tp1036
g4
tp1037
Rp1038
(I1
(I1
tp1039
g11
I00
S'\x00\x00\x00\x00\x00\x00\xf0?'
p1040
tp1041
bg1
(g2
(I0
tp1042
g4
tp1043
Rp1044
(I1
(I1
tp1045
g11
I00
S'\xf1u\xb9I\x92L\xdf?'
p1046
tp1047
bg1
(g2
(I0
tp1048
g4
tp1049
Rp1050
(I1
(I1
tp1051
g11
I00
S'\r\xbc\x8d\x91\xd6F\xdd?'
p1052
tp1053
btp1054
a(g1
(g2
(I0
tp1055
g4
tp1056
Rp1057
(I1
(I1
tp1058
g11
I00
S'\x00\x00\x00\x00\x00\x00\xf0?'
p1059
tp1060
bg1
(g2
(I0
tp1061
g4
tp1062
Rp1063
(I1
(I1
tp1064
g11
I00
S'\x18e\xee]oM\xdf?'
p1065
tp1066
bg1
(g2
(I0
tp1067
g4
tp1068
Rp1069
(I1
(I1
tp1070
g11
I00
S'\x98(\xdbt\xa3G\xdd?'
p1071
tp1072
btp1073
a(g1
(g2
(I0
tp1074
g4
tp1075
Rp1076
(I1
(I1
tp1077
g11
I00
S'\x00\x00\x00\x00\x00\x00\xf0?'
p1078
tp1079
bg1
(g2
(I0
tp1080
g4
tp1081
Rp1082
(I1
(I1
tp1083
g11
I00
S'a%Y\x88\x9eL\xdf?'
p1084
tp1085
bg1
(g2
(I0
tp1086
g4
tp1087
Rp1088
(I1
(I1
tp1089
g11
I00
S'\xa1\x94\x97\xea\xe1F\xdd?'
p1090
tp1091
btp1092
a(g1
(g2
(I0
tp1093
g4
tp1094
Rp1095
(I1
(I1
tp1096
g11
I00
S'\x00\x00\x00\x00\x00\x00\xf0?'
p1097
tp1098
bg1
(g2
(I0
tp1099
g4
tp1100
Rp1101
(I1
(I1
tp1102
g11
I00
S'Sk\xc3\xf6\x80L\xdf?'
p1103
tp1104
bg1
(g2
(I0
tp1105
g4
tp1106
Rp1107
(I1
(I1
tp1108
g11
I00
S'&\x90k\x83\xc6F\xdd?'
p1109
tp1110
btp1111
a(g1
(g2
(I0
tp1112
g4
tp1113
Rp1114
(I1
(I1
tp1115
g11
I00
S'\x00\x00\x00\x00\x00\x00\xf0?'
p1116
tp1117
bg1
(g2
(I0
tp1118
g4
tp1119
Rp1120
(I1
(I1
tp1121
g11
I00
S'{\xea}ohL\xdf?'
p1122
tp1123
bg1
(g2
(I0
tp1124
g4
tp1125
Rp1126
(I1
(I1
tp1127
g11
I00
S'\xf8\x9a\x10\xc8\xafF\xdd?'
p1128
tp1129
btp1130
a(g1
(g2
(I0
tp1131
g4
tp1132
Rp1133
(I1
(I1
tp1134
g11
I00
S'\x00\x00\x00\x00\x00\x00\xf0?'
p1135
tp1136
bg1
(g2
(I0
tp1137
g4
tp1138
Rp1139
(I1
(I1
tp1140
g11
I00
S'\xc3\xfe\xe9\x7f\xefL\xdf?'
p1141
tp1142
bg1
(g2
(I0
tp1143
g4
tp1144
Rp1145
(I1
(I1
tp1146
g11
I00
S'\x9a\x80\x15\xf4,G\xdd?'
p1147
tp1148
btp1149
a(g1
(g2
(I0
tp1150
g4
tp1151
Rp1152
(I1
(I1
tp1153
g11
I00
S'\x00\x00\x00\x00\x00\x00\xf0?'
p1154
tp1155
bg1
(g2
(I0
tp1156
g4
tp1157
Rp1158
(I1
(I1
tp1159
g11
I00
S'$\xca\xd2[\x9dL\xdf?'
p1160
tp1161
bg1
(g2
(I0
tp1162
g4
tp1163
Rp1164
(I1
(I1
tp1165
g11
I00
S'H\x02\x14\xd4\xe0F\xdd?'
p1166
tp1167
btp1168
a(g1
(g2
(I0
tp1169
g4
tp1170
Rp1171
(I1
(I1
tp1172
g11
I00
S'\x00\x00\x00\x00\x00\x00\xf0?'
p1173
tp1174
bg1
(g2
(I0
tp1175
g4
tp1176
Rp1177
(I1
(I1
tp1178
g11
I00
S'\x94z\x8b\xda\x85M\xdf?'
p1179
tp1180
bg1
(g2
(I0
tp1181
g4
tp1182
Rp1183
(I1
(I1
tp1184
g11
I00
S'"X\xe9K\xb8G\xdd?'
p1185
tp1186
btp1187
a(g1
(g2
(I0
tp1188
g4
tp1189
Rp1190
(I1
(I1
tp1191
g11
I00
S'\x00\x00\x00\x00\x00\x00\xf0?'
p1192
tp1193
bg1
(g2
(I0
tp1194
g4
tp1195
Rp1196
(I1
(I1
tp1197
g11
I00
S'\x8c\xb3\xae\x08sL\xdf?'
p1198
tp1199
bg1
(g2
(I0
tp1200
g4
tp1201
Rp1202
(I1
(I1
tp1203
g11
I00
S'n\xde\x87\x9a\xb9F\xdd?'
p1204
tp1205
btp1206
a(g1
(g2
(I0
tp1207
g4
tp1208
Rp1209
(I1
(I1
tp1210
g11
I00
S'\x00\x00\x00\x00\x00\x00\xf0?'
p1211
tp1212
bg1
(g2
(I0
tp1213
g4
tp1214
Rp1215
(I1
(I1
tp1216
g11
I00
S'\x1e\x08\xcbz\x91L\xdf?'
p1217
tp1218
bg1
(g2
(I0
tp1219
g4
tp1220
Rp1221
(I1
(I1
tp1222
g11
I00
S'AC\xc7\xd1\xd5F\xdd?'
p1223
tp1224
btp1225
a(g1
(g2
(I0
tp1226
g4
tp1227
Rp1228
(I1
(I1
tp1229
g11
I00
S'\x00\x00\x00\x00\x00\x00\xf0?'
p1230
tp1231
bg1
(g2
(I0
tp1232
g4
tp1233
Rp1234
(I1
(I1
tp1235
g11
I00
S'X+HY\xbcL\xdf?'
p1236
tp1237
bg1
(g2
(I0
tp1238
g4
tp1239
Rp1240
(I1
(I1
tp1241
g11
I00
S'\xfa\r|\x8c\xfdF\xdd?'
p1242
tp1243
btp1244
a(g1
(g2
(I0
tp1245
g4
tp1246
Rp1247
(I1
(I1
tp1248
g11
I00
S'\x00\x00\x00\x00\x00\x00\xf0?'
p1249
tp1250
bg1
(g2
(I0
tp1251
g4
tp1252
Rp1253
(I1
(I1
tp1254
g11
I00
S'\xa2\x04k\x02\xadN\xdf?'
p1255
tp1256
bg1
(g2
(I0
tp1257
g4
tp1258
Rp1259
(I1
(I1
tp1260
g11
I00
S'\xf3\xa2 \xd7\xc9H\xdd?'
p1261
tp1262
btp1263
a(g1
(g2
(I0
tp1264
g4
tp1265
Rp1266
(I1
(I1
tp1267
g11
I00
S'\x00\x00\x00\x00\x00\x00\xf0?'
p1268
tp1269
bg1
(g2
(I0
tp1270
g4
tp1271
Rp1272
(I1
(I1
tp1273
g11
I00
S'\xf8\xd73\x99\x7fL\xdf?'
p1274
tp1275
bg1
(g2
(I0
tp1276
g4
tp1277
Rp1278
(I1
(I1
tp1279
g11
I00
S'\xc1Rv?\xc5F\xdd?'
p1280
tp1281
btp1282
a(g1
(g2
(I0
tp1283
g4
tp1284
Rp1285
(I1
(I1
tp1286
g11
I00
S'\x00\x00\x00\x00\x00\x00\xf0?'
p1287
tp1288
bg1
(g2
(I0
tp1289
g4
tp1290
Rp1291
(I1
(I1
tp1292
g11
I00
S'\x1cR\xffg\xa3L\xdf?'
p1293
tp1294
bg1
(g2
(I0
tp1295
g4
tp1296
Rp1297
(I1
(I1
tp1298
g11
I00
S'w\x9d\xdcn\xe6F\xdd?'
p1299
tp1300
btp1301
a(g1
(g2
(I0
tp1302
g4
tp1303
Rp1304
(I1
(I1
tp1305
g11
I00
S'\x00\x00\x00\x00\x00\x00\xf0?'
p1306
tp1307
bg1
(g2
(I0
tp1308
g4
tp1309
Rp1310
(I1
(I1
tp1311
g11
I00
S'\xe9Q\xe2\x01\x95L\xdf?'
p1312
tp1313
bg1
(g2
(I0
tp1314
g4
tp1315
Rp1316
(I1
(I1
tp1317
g11
I00
S'!\xa3\xb9\x16\xd9F\xdd?'
p1318
tp1319
btp1320
a(g1
(g2
(I0
tp1321
g4
tp1322
Rp1323
(I1
(I1
tp1324
g11
I00
S'\x00\x00\x00\x00\x00\x00\xf0?'
p1325
tp1326
bg1
(g2
(I0
tp1327
g4
tp1328
Rp1329
(I1
(I1
tp1330
g11
I00
S'\xf2\xdf\xf5S\xffL\xdf?'
p1331
tp1332
bg1
(g2
(I0
tp1333
g4
tp1334
Rp1335
(I1
(I1
tp1336
g11
I00
S'\xe1\xfb^\x9f;G\xdd?'
p1337
tp1338
btp1339
a(g1
(g2
(I0
tp1340
g4
tp1341
Rp1342
(I1
(I1
tp1343
g11
I00
S'\x00\x00\x00\x00\x00\x00\xf0?'
p1344
tp1345
bg1
(g2
(I0
tp1346
g4
tp1347
Rp1348
(I1
(I1
tp1349
g11
I00
S'\xc8\x9c\xe7\xc2\xf8L\xdf?'
p1350
tp1351
bg1
(g2
(I0
tp1352
g4
tp1353
Rp1354
(I1
(I1
tp1355
g11
I00
S'\t%n\x895G\xdd?'
p1356
tp1357
btp1358
a(g1
(g2
(I0
tp1359
g4
tp1360
Rp1361
(I1
(I1
tp1362
g11
I00
S'\x00\x00\x00\x00\x00\x00\xf0?'
p1363
tp1364
bg1
(g2
(I0
tp1365
g4
tp1366
Rp1367
(I1
(I1
tp1368
g11
I00
S'\xca\xfc2\xfc\x86L\xdf?'
p1369
tp1370
bg1
(g2
(I0
tp1371
g4
tp1372
Rp1373
(I1
(I1
tp1374
g11
I00
S'\x97\xf9\xf4\x17\xccF\xdd?'
p1375
tp1376
btp1377
a(g1
(g2
(I0
tp1378
g4
tp1379
Rp1380
(I1
(I1
tp1381
g11
I00
S'\x00\x00\x00\x00\x00\x00\xf0?'
p1382
tp1383
bg1
(g2
(I0
tp1384
g4
tp1385
Rp1386
(I1
(I1
tp1387
g11
I00
S'\x15\x07\x86\xa3\x98L\xdf?'
p1388
tp1389
bg1
(g2
(I0
tp1390
g4
tp1391
Rp1392
(I1
(I1
tp1393
g11
I00
S'\xea\xb0Ft\xdcF\xdd?'
p1394
tp1395
btp1396
a(g1
(g2
(I0
tp1397
g4
tp1398
Rp1399
(I1
(I1
tp1400
g11
I00
S'\x00\x00\x00\x00\x00\x00\xf0?'
p1401
tp1402
bg1
(g2
(I0
tp1403
g4
tp1404
Rp1405
(I1
(I1
tp1406
g11
I00
S'\x00\xd4W\x912M\xdf?'
p1407
tp1408
bg1
(g2
(I0
tp1409
g4
tp1410
Rp1411
(I1
(I1
tp1412
g11
I00
S'%t\x19\x1ckG\xdd?'
p1413
tp1414
btp1415
a(g1
(g2
(I0
tp1416
g4
tp1417
Rp1418
(I1
(I1
tp1419
g11
I00
S'\x00\x00\x00\x00\x00\x00\xf0?'
p1420
tp1421
bg1
(g2
(I0
tp1422
g4
tp1423
Rp1424
(I1
(I1
tp1425
g11
I00
S'\x8d~\x8dS\x9bL\xdf?'
p1426
tp1427
bg1
(g2
(I0
tp1428
g4
tp1429
Rp1430
(I1
(I1
tp1431
g11
I00
S'\x05\xb4\xe9\xf1\xdeF\xdd?'
p1432
tp1433
btp1434
a(g1
(g2
(I0
tp1435
g4
tp1436
Rp1437
(I1
(I1
tp1438
g11
I00
S'\x00\x00\x00\x00\x00\x00\xf0?'
p1439
tp1440
bg1
(g2
(I0
tp1441
g4
tp1442
Rp1443
(I1
(I1
tp1444
g11
I00
S'D3\x8b\xfa\xf4L\xdf?'
p1445
tp1446
bg1
(g2
(I0
tp1447
g4
tp1448
Rp1449
(I1
(I1
tp1450
g11
I00
S'83\xfd\x072G\xdd?'
p1451
tp1452
btp1453
a(g1
(g2
(I0
tp1454
g4
tp1455
Rp1456
(I1
(I1
tp1457
g11
I00
S'\x00\x00\x00\x00\x00\x00\xf0?'
p1458
tp1459
bg1
(g2
(I0
tp1460
g4
tp1461
Rp1462
(I1
(I1
tp1463
g11
I00
S'/P\xcc\xf0\x94N\xdf?'
p1464
tp1465
bg1
(g2
(I0
tp1466
g4
tp1467
Rp1468
(I1
(I1
tp1469
g11
I00
S'\xf2\xd6\xa1\x88\xb3H\xdd?'
p1470
tp1471
btp1472
a(g1
(g2
(I0
tp1473
g4
tp1474
Rp1475
(I1
(I1
tp1476
g11
I00
S'\x00\x00\x00\x00\x00\x00\xf0?'
p1477
tp1478
bg1
(g2
(I0
tp1479
g4
tp1480
Rp1481
(I1
(I1
tp1482
g11
I00
S'\xc1W\xf8\x87\x9aL\xdf?'
p1483
tp1484
bg1
(g2
(I0
tp1485
g4
tp1486
Rp1487
(I1
(I1
tp1488
g11
I00
S'-\xb2=5\xdeF\xdd?'
p1489
tp1490
btp1491
a(g1
(g2
(I0
tp1492
g4
tp1493
Rp1494
(I1
(I1
tp1495
g11
I00
S'\x00\x00\x00\x00\x00\x00\xf0?'
p1496
tp1497
bg1
(g2
(I0
tp1498
g4
tp1499
Rp1500
(I1
(I1
tp1501
g11
I00
S'\x1f\x96\x11[\x02M\xdf?'
p1502
tp1503
bg1
(g2
(I0
tp1504
g4
tp1505
Rp1506
(I1
(I1
tp1507
g11
I00
S'\xc7\x8e\xb6m>G\xdd?'
p1508
tp1509
btp1510
a(g1
(g2
(I0
tp1511
g4
tp1512
Rp1513
(I1
(I1
tp1514
g11
I00
S'\x00\x00\x00\x00\x00\x00\xf0?'
p1515
tp1516
bg1
(g2
(I0
tp1517
g4
tp1518
Rp1519
(I1
(I1
tp1520
g11
I00
S'\xc8\x91c\x9d\x14M\xdf?'
p1521
tp1522
bg1
(g2
(I0
tp1523
g4
tp1524
Rp1525
(I1
(I1
tp1526
g11
I00
S'\xe5\x91\xb4YOG\xdd?'
p1527
tp1528
btp1529
a(g1
(g2
(I0
tp1530
g4
tp1531
Rp1532
(I1
(I1
tp1533
g11
I00
S'\x00\x00\x00\x00\x00\x00\xf0?'
p1534
tp1535
bg1
(g2
(I0
tp1536
g4
tp1537
Rp1538
(I1
(I1
tp1539
g11
I00
S'\xd7}J\t\x9fL\xdf?'
p1540
tp1541
bg1
(g2
(I0
tp1542
g4
tp1543
Rp1544
(I1
(I1
tp1545
g11
I00
S'ZF\x17b\xe2F\xdd?'
p1546
tp1547
btp1548
a(g1
(g2
(I0
tp1549
g4
tp1550
Rp1551
(I1
(I1
tp1552
g11
I00
S'\x00\x00\x00\x00\x00\x00\xf0?'
p1553
tp1554
bg1
(g2
(I0
tp1555
g4
tp1556
Rp1557
(I1
(I1
tp1558
g11
I00
S'\xadh1\xc5LM\xdf?'
p1559
tp1560
bg1
(g2
(I0
tp1561
g4
tp1562
Rp1563
(I1
(I1
tp1564
g11
I00
S'\x877\xb6d\x83G\xdd?'
p1565
tp1566
btp1567
a(g1
(g2
(I0
tp1568
g4
tp1569
Rp1570
(I1
(I1
tp1571
g11
I00
S'\x00\x00\x00\x00\x00\x00\xf0?'
p1572
tp1573
bg1
(g2
(I0
tp1574
g4
tp1575
Rp1576
(I1
(I1
tp1577
g11
I00
S'\xa9\x1bW\xef\xbcL\xdf?'
p1578
tp1579
bg1
(g2
(I0
tp1580
g4
tp1581
Rp1582
(I1
(I1
tp1583
g11
I00
S'\xae|\x8d\x17\xfeF\xdd?'
p1584
tp1585
btp1586
a(g1
(g2
(I0
tp1587
g4
tp1588
Rp1589
(I1
(I1
tp1590
g11
I00
S'\x00\x00\x00\x00\x00\x00\xf0?'
p1591
tp1592
bg1
(g2
(I0
tp1593
g4
tp1594
Rp1595
(I1
(I1
tp1596
g11
I00
S'\x8by\xa6\x80\xa0L\xdf?'
p1597
tp1598
bg1
(g2
(I0
tp1599
g4
tp1600
Rp1601
(I1
(I1
tp1602
g11
I00
S'\x7fY\xf5\xbd\xe3F\xdd?'
p1603
tp1604
btp1605
a(g1
(g2
(I0
tp1606
g4
tp1607
Rp1608
(I1
(I1
tp1609
g11
I00
S'\x00\x00\x00\x00\x00\x00\xf0?'
p1610
tp1611
bg1
(g2
(I0
tp1612
g4
tp1613
Rp1614
(I1
(I1
tp1615
g11
I00
S'in\xe75\xdeL\xdf?'
p1616
tp1617
bg1
(g2
(I0
tp1618
g4
tp1619
Rp1620
(I1
(I1
tp1621
g11
I00
S'w\x9a9\xee\x1cG\xdd?'
p1622
tp1623
btp1624
a(g1
(g2
(I0
tp1625
g4
tp1626
Rp1627
(I1
(I1
tp1628
g11
I00
S'\x00\x00\x00\x00\x00\x00\xf0?'
p1629
tp1630
bg1
(g2
(I0
tp1631
g4
tp1632
Rp1633
(I1
(I1
tp1634
g11
I00
S'\xc3,\x18\x8f\xb1M\xdf?'
p1635
tp1636
bg1
(g2
(I0
tp1637
g4
tp1638
Rp1639
(I1
(I1
tp1640
g11
I00
S'\x15\xc7#\xcd\xe0G\xdd?'
p1641
tp1642
btp1643
a(g1
(g2
(I0
tp1644
g4
tp1645
Rp1646
(I1
(I1
tp1647
g11
I00
S'\x00\x00\x00\x00\x00\x00\xf0?'
p1648
tp1649
bg1
(g2
(I0
tp1650
g4
tp1651
Rp1652
(I1
(I1
tp1653
g11
I00
S'\x1c4\xb8\x0f\x8cL\xdf?'
p1654
tp1655
bg1
(g2
(I0
tp1656
g4
tp1657
Rp1658
(I1
(I1
tp1659
g11
I00
S'x\x14L\xcc\xd0F\xdd?'
p1660
tp1661
btp1662
a(g1
(g2
(I0
tp1663
g4
tp1664
Rp1665
(I1
(I1
tp1666
g11
I00
S'\x00\x00\x00\x00\x00\x00\xf0?'
p1667
tp1668
bg1
(g2
(I0
tp1669
g4
tp1670
Rp1671
(I1
(I1
tp1672
g11
I00
S'q\x99\x9b#7M\xdf?'
p1673
tp1674
bg1
(g2
(I0
tp1675
g4
tp1676
Rp1677
(I1
(I1
tp1678
g11
I00
S'\x17G\xa9XoG\xdd?'
p1679
tp1680
btp1681
a(g1
(g2
(I0
tp1682
g4
tp1683
Rp1684
(I1
(I1
tp1685
g11
I00
S'\x00\x00\x00\x00\x00\x00\xf0?'
p1686
tp1687
bg1
(g2
(I0
tp1688
g4
tp1689
Rp1690
(I1
(I1
tp1691
g11
I00
S'\x81\x96\xbe\x0e\xf0L\xdf?'
p1692
tp1693
bg1
(g2
(I0
tp1694
g4
tp1695
Rp1696
(I1
(I1
tp1697
g11
I00
S'\xf73tx-G\xdd?'
p1698
tp1699
btp1700
a(g1
(g2
(I0
tp1701
g4
tp1702
Rp1703
(I1
(I1
tp1704
g11
I00
S'\x00\x00\x00\x00\x00\x00\xf0?'
p1705
tp1706
bg1
(g2
(I0
tp1707
g4
tp1708
Rp1709
(I1
(I1
tp1710
g11
I00
S'1\xe8.\xf5\xaaL\xdf?'
p1711
tp1712
bg1
(g2
(I0
tp1713
g4
tp1714
Rp1715
(I1
(I1
tp1716
g11
I00
S'\xbb\x8eun\xedF\xdd?'
p1717
tp1718
btp1719
a(g1
(g2
(I0
tp1720
g4
tp1721
Rp1722
(I1
(I1
tp1723
g11
I00
S'\x00\x00\x00\x00\x00\x00\xf0?'
p1724
tp1725
bg1
(g2
(I0
tp1726
g4
tp1727
Rp1728
(I1
(I1
tp1729
g11
I00
S'\xee\xbcr\xe5LM\xdf?'
p1730
tp1731
bg1
(g2
(I0
tp1732
g4
tp1733
Rp1734
(I1
(I1
tp1735
g11
I00
S'5\xd7\x9a\x82\x83G\xdd?'
p1736
tp1737
btp1738
a(g1
(g2
(I0
tp1739
g4
tp1740
Rp1741
(I1
(I1
tp1742
g11
I00
S'\x00\x00\x00\x00\x00\x00\xf0?'
p1743
tp1744
bg1
(g2
(I0
tp1745
g4
tp1746
Rp1747
(I1
(I1
tp1748
g11
I00
S'\xb7k#\xe8\x9dL\xdf?'
p1749
tp1750
bg1
(g2
(I0
tp1751
g4
tp1752
Rp1753
(I1
(I1
tp1754
g11
I00
S'\x8a\xc2\x1dV\xe1F\xdd?'
p1755
tp1756
btp1757
a(g1
(g2
(I0
tp1758
g4
tp1759
Rp1760
(I1
(I1
tp1761
g11
I00
S'\x00\x00\x00\x00\x00\x00\xf0?'
p1762
tp1763
bg1
(g2
(I0
tp1764
g4
tp1765
Rp1766
(I1
(I1
tp1767
g11
I00
S'tP\x83.\xedL\xdf?'
p1768
tp1769
bg1
(g2
(I0
tp1770
g4
tp1771
Rp1772
(I1
(I1
tp1773
g11
I00
S'^\\$\xce*G\xdd?'
p1774
tp1775
btp1776
a(g1
(g2
(I0
tp1777
g4
tp1778
Rp1779
(I1
(I1
tp1780
g11
I00
S'\x00\x00\x00\x00\x00\x00\xf0?'
p1781
tp1782
bg1
(g2
(I0
tp1783
g4
tp1784
Rp1785
(I1
(I1
tp1786
g11
I00
S'z\x94\xb4\xa8\xe7L\xdf?'
p1787
tp1788
bg1
(g2
(I0
tp1789
g4
tp1790
Rp1791
(I1
(I1
tp1792
g11
I00
S'\x1d\xd9\xe0\xaf%G\xdd?'
p1793
tp1794
btp1795
a(g1
(g2
(I0
tp1796
g4
tp1797
Rp1798
(I1
(I1
tp1799
g11
I00
S'\x00\x00\x00\x00\x00\x00\xf0?'
p1800
tp1801
bg1
(g2
(I0
tp1802
g4
tp1803
Rp1804
(I1
(I1
tp1805
g11
I00
S'\xd7E\x9f.\xf7L\xdf?'
p1806
tp1807
bg1
(g2
(I0
tp1808
g4
tp1809
Rp1810
(I1
(I1
tp1811
g11
I00
S'\xf2\x8d\xc1\x124G\xdd?'
p1812
tp1813
btp1814
a(g1
(g2
(I0
tp1815
g4
tp1816
Rp1817
(I1
(I1
tp1818
g11
I00
S'\x00\x00\x00\x00\x00\x00\xf0?'
p1819
tp1820
bg1
(g2
(I0
tp1821
g4
tp1822
Rp1823
(I1
(I1
tp1824
g11
I00
S'?@9\x8b\xdfL\xdf?'
p1825
tp1826
bg1
(g2
(I0
tp1827
g4
tp1828
Rp1829
(I1
(I1
tp1830
g11
I00
S'E\x08\x8c*\x1eG\xdd?'
p1831
tp1832
btp1833
a(g1
(g2
(I0
tp1834
g4
tp1835
Rp1836
(I1
(I1
tp1837
g11
I00
S'\x00\x00\x00\x00\x00\x00\xf0?'
p1838
tp1839
bg1
(g2
(I0
tp1840
g4
tp1841
Rp1842
(I1
(I1
tp1843
g11
I00
S'\xe3\x9aL<\xc4L\xdf?'
p1844
tp1845
bg1
(g2
(I0
tp1846
g4
tp1847
Rp1848
(I1
(I1
tp1849
g11
I00
S't1\xa1\xdb\x04G\xdd?'
p1850
tp1851
btp1852
a(g1
(g2
(I0
tp1853
g4
tp1854
Rp1855
(I1
(I1
tp1856
g11
I00
S'\x00\x00\x00\x00\x00\x00\xf0?'
p1857
tp1858
bg1
(g2
(I0
tp1859
g4
tp1860
Rp1861
(I1
(I1
tp1862
g11
I00
S'3\x9d8\x0f\xdcL\xdf?'
p1863
tp1864
bg1
(g2
(I0
tp1865
g4
tp1866
Rp1867
(I1
(I1
tp1868
g11
I00
S'\xec\x88\xdf\xef\x1aG\xdd?'
p1869
tp1870
btp1871
a(g1
(g2
(I0
tp1872
g4
tp1873
Rp1874
(I1
(I1
tp1875
g11
I00
S'\x00\x00\x00\x00\x00\x00\xf0?'
p1876
tp1877
bg1
(g2
(I0
tp1878
g4
tp1879
Rp1880
(I1
(I1
tp1881
g11
I00
S'\xe0\x93\xf0\x91PM\xdf?'
p1882
tp1883
bg1
(g2
(I0
tp1884
g4
tp1885
Rp1886
(I1
(I1
tp1887
g11
I00
S'\x7f\xcd8\xea\x86G\xdd?'
p1888
tp1889
btp1890
a(g1
(g2
(I0
tp1891
g4
tp1892
Rp1893
(I1
(I1
tp1894
g11
I00
S'\x00\x00\x00\x00\x00\x00\xf0?'
p1895
tp1896
bg1
(g2
(I0
tp1897
g4
tp1898
Rp1899
(I1
(I1
tp1900
g11
I00
S'\xcfi\xe9\xdf\x86M\xdf?'
p1901
tp1902
bg1
(g2
(I0
tp1903
g4
tp1904
Rp1905
(I1
(I1
tp1906
g11
I00
S'\xf9|#>\xb9G\xdd?'
p1907
tp1908
btp1909
a(g1
(g2
(I0
tp1910
g4
tp1911
Rp1912
(I1
(I1
tp1913
g11
I00
S'\x00\x00\x00\x00\x00\x00\xf0?'
p1914
tp1915
bg1
(g2
(I0
tp1916
g4
tp1917
Rp1918
(I1
(I1
tp1919
g11
I00
S'4\xbb`wtL\xdf?'
p1920
tp1921
bg1
(g2
(I0
tp1922
g4
tp1923
Rp1924
(I1
(I1
tp1925
g11
I00
S'\xe89^\xee\xbaF\xdd?'
p1926
tp1927
btp1928
a(g1
(g2
(I0
tp1929
g4
tp1930
Rp1931
(I1
(I1
tp1932
g11
I00
S'\x00\x00\x00\x00\x00\x00\xf0?'
p1933
tp1934
bg1
(g2
(I0
tp1935
g4
tp1936
Rp1937
(I1
(I1
tp1938
g11
I00
S'\xda"\xab\x06\xc3L\xdf?'
p1939
tp1940
bg1
(g2
(I0
tp1941
g4
tp1942
Rp1943
(I1
(I1
tp1944
g11
I00
S'X\x17\xad\xbc\x03G\xdd?'
p1945
tp1946
btp1947
a(g1
(g2
(I0
tp1948
g4
tp1949
Rp1950
(I1
(I1
tp1951
g11
I00
S'\x00\x00\x00\x00\x00\x00\xf0?'
p1952
tp1953
bg1
(g2
(I0
tp1954
g4
tp1955
Rp1956
(I1
(I1
tp1957
g11
I00
S'\x07\xb1\xac\x98\x9cL\xdf?'
p1958
tp1959
bg1
(g2
(I0
tp1960
g4
tp1961
Rp1962
(I1
(I1
tp1963
g11
I00
S'\xd9\xea8\x1f\xe0F\xdd?'
p1964
tp1965
btp1966
a(g1
(g2
(I0
tp1967
g4
tp1968
Rp1969
(I1
(I1
tp1970
g11
I00
S'\x00\x00\x00\x00\x00\x00\xf0?'
p1971
tp1972
bg1
(g2
(I0
tp1973
g4
tp1974
Rp1975
(I1
(I1
tp1976
g11
I00
S'Xl^\xe7QM\xdf?'
p1977
tp1978
bg1
(g2
(I0
tp1979
g4
tp1980
Rp1981
(I1
(I1
tp1982
g11
I00
S'\x9d\xb6\xa5&\x88G\xdd?'
p1983
tp1984
btp1985
a(g1
(g2
(I0
tp1986
g4
tp1987
Rp1988
(I1
(I1
tp1989
g11
I00
S'\x00\x00\x00\x00\x00\x00\xf0?'
p1990
tp1991
bg1
(g2
(I0
tp1992
g4
tp1993
Rp1994
(I1
(I1
tp1995
g11
I00
S'wi\x8d\x8b\xdeL\xdf?'
p1996
tp1997
bg1
(g2
(I0
tp1998
g4
tp1999
Rp2000
(I1
(I1
tp2001
g11
I00
S'\xd8\xc3\x99=\x1dG\xdd?'
p2002
tp2003
btp2004
a(g1
(g2
(I0
tp2005
g4
tp2006
Rp2007
(I1
(I1
tp2008
g11
I00
S'\x00\x00\x00\x00\x00\x00\xf0?'
p2009
tp2010
bg1
(g2
(I0
tp2011
g4
tp2012
Rp2013
(I1
(I1
tp2014
g11
I00
S'\xf6\x18\x9a\x19\xa7L\xdf?'
p2015
tp2016
bg1
(g2
(I0
tp2017
g4
tp2018
Rp2019
(I1
(I1
tp2020
g11
I00
S'?\x925\xdb\xe9F\xdd?'
p2021
tp2022
btp2023
a(g1
(g2
(I0
tp2024
g4
tp2025
Rp2026
(I1
(I1
tp2027
g11
I00
S'\x00\x00\x00\x00\x00\x00\xf0?'
p2028
tp2029
bg1
(g2
(I0
tp2030
g4
tp2031
Rp2032
(I1
(I1
tp2033
g11
I00
S'$u\xa7\xb4\xa1L\xdf?'
p2034
tp2035
bg1
(g2
(I0
tp2036
g4
tp2037
Rp2038
(I1
(I1
tp2039
g11
I00
S'\x8eTg\xdb\xe4F\xdd?'
p2040
tp2041
btp2042
a(g1
(g2
(I0
tp2043
g4
tp2044
Rp2045
(I1
(I1
tp2046
g11
I00
S'\x00\x00\x00\x00\x00\x00\xf0?'
p2047
tp2048
bg1
(g2
(I0
tp2049
g4
tp2050
Rp2051
(I1
(I1
tp2052
g11
I00
S'Ev7\x8e\x9cL\xdf?'
p2053
tp2054
bg1
(g2
(I0
tp2055
g4
tp2056
Rp2057
(I1
(I1
tp2058
g11
I00
S'\xb2\xc5\x87\x15\xe0F\xdd?'
p2059
tp2060
btp2061
a(g1
(g2
(I0
tp2062
g4
tp2063
Rp2064
(I1
(I1
tp2065
g11
I00
S'\x00\x00\x00\x00\x00\x00\xf0?'
p2066
tp2067
bg1
(g2
(I0
tp2068
g4
tp2069
Rp2070
(I1
(I1
tp2071
g11
I00
S'\xb58m\xc7\x91L\xdf?'
p2072
tp2073
bg1
(g2
(I0
tp2074
g4
tp2075
Rp2076
(I1
(I1
tp2077
g11
I00
S'J\x93\xcc\x18\xd6F\xdd?'
p2078
tp2079
btp2080
a(g1
(g2
(I0
tp2081
g4
tp2082
Rp2083
(I1
(I1
tp2084
g11
I00
S'\x00\x00\x00\x00\x00\x00\xf0?'
p2085
tp2086
bg1
(g2
(I0
tp2087
g4
tp2088
Rp2089
(I1
(I1
tp2090
g11
I00
S'\xfe1\x08\x8faL\xdf?'
p2091
tp2092
bg1
(g2
(I0
tp2093
g4
tp2094
Rp2095
(I1
(I1
tp2096
g11
I00
S'\x1f|\x8ch\xa9F\xdd?'
p2097
tp2098
btp2099
a(g1
(g2
(I0
tp2100
g4
tp2101
Rp2102
(I1
(I1
tp2103
g11
I00
S'\x00\x00\x00\x00\x00\x00\xf0?'
p2104
tp2105
bg1
(g2
(I0
tp2106
g4
tp2107
Rp2108
(I1
(I1
tp2109
g11
I00
S'\x8b\xfa~Z\xdbL\xdf?'
p2110
tp2111
bg1
(g2
(I0
tp2112
g4
tp2113
Rp2114
(I1
(I1
tp2115
g11
I00
S'%QbH\x1aG\xdd?'
p2116
tp2117
btp2118
a(g1
(g2
(I0
tp2119
g4
tp2120
Rp2121
(I1
(I1
tp2122
g11
I00
S'\x00\x00\x00\x00\x00\x00\xf0?'
p2123
tp2124
bg1
(g2
(I0
tp2125
g4
tp2126
Rp2127
(I1
(I1
tp2128
g11
I00
S'\x1d\x9d\xb7\x1e\x8aL\xdf?'
p2129
tp2130
bg1
(g2
(I0
tp2131
g4
tp2132
Rp2133
(I1
(I1
tp2134
g11
I00
S' P\xb2\xff\xceF\xdd?'
p2135
tp2136
btp2137
a(g1
(g2
(I0
tp2138
g4
tp2139
Rp2140
(I1
(I1
tp2141
g11
I00
S'\x00\x00\x00\x00\x00\x00\xf0?'
p2142
tp2143
bg1
(g2
(I0
tp2144
g4
tp2145
Rp2146
(I1
(I1
tp2147
g11
I00
S'\xb1\xfeZA!M\xdf?'
p2148
tp2149
bg1
(g2
(I0
tp2150
g4
tp2151
Rp2152
(I1
(I1
tp2153
g11
I00
S'`}\xaf\x10[G\xdd?'
p2154
tp2155
btp2156
a(g1
(g2
(I0
tp2157
g4
tp2158
Rp2159
(I1
(I1
tp2160
g11
I00
S'\x00\x00\x00\x00\x00\x00\xf0?'
p2161
tp2162
bg1
(g2
(I0
tp2163
g4
tp2164
Rp2165
(I1
(I1
tp2166
g11
I00
S'o\xa2\xc4\x86\xabL\xdf?'
p2167
tp2168
bg1
(g2
(I0
tp2169
g4
tp2170
Rp2171
(I1
(I1
tp2172
g11
I00
S'\xf5\x9ea\xf5\xedF\xdd?'
p2173
tp2174
btp2175
a(g1
(g2
(I0
tp2176
g4
tp2177
Rp2178
(I1
(I1
tp2179
g11
I00
S'\x00\x00\x00\x00\x00\x00\xf0?'
p2180
tp2181
bg1
(g2
(I0
tp2182
g4
tp2183
Rp2184
(I1
(I1
tp2185
g11
I00
S"\xc7'\xc7\x00\x02M\xdf?"
p2186
tp2187
bg1
(g2
(I0
tp2188
g4
tp2189
Rp2190
(I1
(I1
tp2191
g11
I00
S'\x8f\xf1\x08\x1a>G\xdd?'
p2192
tp2193
btp2194
a(g1
(g2
(I0
tp2195
g4
tp2196
Rp2197
(I1
(I1
tp2198
g11
I00
S'\x00\x00\x00\x00\x00\x00\xf0?'
p2199
tp2200
bg1
(g2
(I0
tp2201
g4
tp2202
Rp2203
(I1
(I1
tp2204
g11
I00
S'y\x84\xe3E\xc9L\xdf?'
p2205
tp2206
bg1
(g2
(I0
tp2207
g4
tp2208
Rp2209
(I1
(I1
tp2210
g11
I00
S'\x1e:\xc5\x86\tG\xdd?'
p2211
tp2212
btp2213
a(g1
(g2
(I0
tp2214
g4
tp2215
Rp2216
(I1
(I1
tp2217
g11
I00
S'\x00\x00\x00\x00\x00\x00\xf0?'
p2218
tp2219
bg1
(g2
(I0
tp2220
g4
tp2221
Rp2222
(I1
(I1
tp2223
g11
I00
S'@\xd7\xe7\xfa\xf9L\xdf?'
p2224
tp2225
bg1
(g2
(I0
tp2226
g4
tp2227
Rp2228
(I1
(I1
tp2229
g11
I00
S'\x1a\xc9\x94\xaa6G\xdd?'
p2230
tp2231
btp2232
a(g1
(g2
(I0
tp2233
g4
tp2234
Rp2235
(I1
(I1
tp2236
g11
I00
S'\x00\x00\x00\x00\x00\x00\xf0?'
p2237
tp2238
bg1
(g2
(I0
tp2239
g4
tp2240
Rp2241
(I1
(I1
tp2242
g11
I00
S'\\\xe5\x1b\xac\xa2L\xdf?'
p2243
tp2244
bg1
(g2
(I0
tp2245
g4
tp2246
Rp2247
(I1
(I1
tp2248
g11
I00
S'\xd2\x0c\xbc\xc0\xe5F\xdd?'
p2249
tp2250
btp2251
a(g1
(g2
(I0
tp2252
g4
tp2253
Rp2254
(I1
(I1
tp2255
g11
I00
S'\x00\x00\x00\x00\x00\x00\xf0?'
p2256
tp2257
bg1
(g2
(I0
tp2258
g4
tp2259
Rp2260
(I1
(I1
tp2261
g11
I00
S'\x06\x19,@\x14M\xdf?'
p2262
tp2263
bg1
(g2
(I0
tp2264
g4
tp2265
Rp2266
(I1
(I1
tp2267
g11
I00
S'\xfe\xbfP\x03OG\xdd?'
p2268
tp2269
btp2270
a(g1
(g2
(I0
tp2271
g4
tp2272
Rp2273
(I1
(I1
tp2274
g11
I00
S'\x00\x00\x00\x00\x00\x00\xf0?'
p2275
tp2276
bg1
(g2
(I0
tp2277
g4
tp2278
Rp2279
(I1
(I1
tp2280
g11
I00
S'5d\xa9\x80\xa5L\xdf?'
p2281
tp2282
bg1
(g2
(I0
tp2283
g4
tp2284
Rp2285
(I1
(I1
tp2286
g11
I00
S'\xe8_8`\xe8F\xdd?'
p2287
tp2288
btp2289
a(g1
(g2
(I0
tp2290
g4
tp2291
Rp2292
(I1
(I1
tp2293
g11
I00
S'\x00\x00\x00\x00\x00\x00\xf0?'
p2294
tp2295
bg1
(g2
(I0
tp2296
g4
tp2297
Rp2298
(I1
(I1
tp2299
g11
I00
S'\xcf[\xa0\xa9\xf4L\xdf?'
p2300
tp2301
bg1
(g2
(I0
tp2302
g4
tp2303
Rp2304
(I1
(I1
tp2305
g11
I00
S'\xc6s\xff\xbc1G\xdd?'
p2306
tp2307
btp2308
a(g1
(g2
(I0
tp2309
g4
tp2310
Rp2311
(I1
(I1
tp2312
g11
I00
S'\x00\x00\x00\x00\x00\x00\xf0?'
p2313
tp2314
bg1
(g2
(I0
tp2315
g4
tp2316
Rp2317
(I1
(I1
tp2318
g11
I00
S'\xf1\xe3S\t\xa2L\xdf?'
p2319
tp2320
bg1
(g2
(I0
tp2321
g4
tp2322
Rp2323
(I1
(I1
tp2324
g11
I00
S"^'\xe0)\xe5F\xdd?"
p2325
tp2326
btp2327
a(g1
(g2
(I0
tp2328
g4
tp2329
Rp2330
(I1
(I1
tp2331
g11
I00
S'\x00\x00\x00\x00\x00\x00\xf0?'
p2332
tp2333
bg1
(g2
(I0
tp2334
g4
tp2335
Rp2336
(I1
(I1
tp2337
g11
I00
S'\x18\x83\xd6\x82\xe0L\xdf?'
p2338
tp2339
bg1
(g2
(I0
tp2340
g4
tp2341
Rp2342
(I1
(I1
tp2343
g11
I00
S'\xc7\xc8\x06\x10\x1fG\xdd?'
p2344
tp2345
btp2346
a(g1
(g2
(I0
tp2347
g4
tp2348
Rp2349
(I1
(I1
tp2350
g11
I00
S'\x00\x00\x00\x00\x00\x00\xf0?'
p2351
tp2352
bg1
(g2
(I0
tp2353
g4
tp2354
Rp2355
(I1
(I1
tp2356
g11
I00
S'S_8\xd3\xf2L\xdf?'
p2357
tp2358
bg1
(g2
(I0
tp2359
g4
tp2360
Rp2361
(I1
(I1
tp2362
g11
I00
S')\xf8\n\t0G\xdd?'
p2363
tp2364
btp2365
a(g1
(g2
(I0
tp2366
g4
tp2367
Rp2368
(I1
(I1
tp2369
g11
I00
S'\x00\x00\x00\x00\x00\x00\xf0?'
p2370
tp2371
bg1
(g2
(I0
tp2372
g4
tp2373
Rp2374
(I1
(I1
tp2375
g11
I00
S'%\x14\xbb\xc6IM\xdf?'
p2376
tp2377
bg1
(g2
(I0
tp2378
g4
tp2379
Rp2380
(I1
(I1
tp2381
g11
I00
S'\x80.a\x9e\x80G\xdd?'
p2382
tp2383
btp2384
a(g1
(g2
(I0
tp2385
g4
tp2386
Rp2387
(I1
(I1
tp2388
g11
I00
S'\x00\x00\x00\x00\x00\x00\xf0?'
p2389
tp2390
bg1
(g2
(I0
tp2391
g4
tp2392
Rp2393
(I1
(I1
tp2394
g11
I00
S'A\x9f\x00&\xd1L\xdf?'
p2395
tp2396
bg1
(g2
(I0
tp2397
g4
tp2398
Rp2399
(I1
(I1
tp2400
g11
I00
S'\xa0\xd09\xd3\x10G\xdd?'
p2401
tp2402
btp2403
a(g1
(g2
(I0
tp2404
g4
tp2405
Rp2406
(I1
(I1
tp2407
g11
I00
S'\x00\x00\x00\x00\x00\x00\xf0?'
p2408
tp2409
bg1
(g2
(I0
tp2410
g4
tp2411
Rp2412
(I1
(I1
tp2413
g11
I00
S'X\xc5$y0M\xdf?'
p2414
tp2415
bg1
(g2
(I0
tp2416
g4
tp2417
Rp2418
(I1
(I1
tp2419
g11
I00
S'\x9d\x01++iG\xdd?'
p2420
tp2421
btp2422
a(g1
(g2
(I0
tp2423
g4
tp2424
Rp2425
(I1
(I1
tp2426
g11
I00
S'\x00\x00\x00\x00\x00\x00\xf0?'
p2427
tp2428
bg1
(g2
(I0
tp2429
g4
tp2430
Rp2431
(I1
(I1
tp2432
g11
I00
S'\x1dj\xf1Z\x9bL\xdf?'
p2433
tp2434
bg1
(g2
(I0
tp2435
g4
tp2436
Rp2437
(I1
(I1
tp2438
g11
I00
S'Z\x0e\xc3\xf8\xdeF\xdd?'
p2439
tp2440
btp2441
a(g1
(g2
(I0
tp2442
g4
tp2443
Rp2444
(I1
(I1
tp2445
g11
I00
S'\x00\x00\x00\x00\x00\x00\xf0?'
p2446
tp2447
bg1
(g2
(I0
tp2448
g4
tp2449
Rp2450
(I1
(I1
tp2451
g11
I00
S'\xf2\xc5c\x08\xc1L\xdf?'
p2452
tp2453
bg1
(g2
(I0
tp2454
g4
tp2455
Rp2456
(I1
(I1
tp2457
g11
I00
S'\xdf\x1e\xc5\xe3\x01G\xdd?'
p2458
tp2459
btp2460
a(g1
(g2
(I0
tp2461
g4
tp2462
Rp2463
(I1
(I1
tp2464
g11
I00
S'\x00\x00\x00\x00\x00\x00\xf0?'
p2465
tp2466
bg1
(g2
(I0
tp2467
g4
tp2468
Rp2469
(I1
(I1
tp2470
g11
I00
S'\x17\xb5}\x87\xe8L\xdf?'
p2471
tp2472
bg1
(g2
(I0
tp2473
g4
tp2474
Rp2475
(I1
(I1
tp2476
g11
I00
S';\x00Y~&G\xdd?'
p2477
tp2478
btp2479
a(g1
(g2
(I0
tp2480
g4
tp2481
Rp2482
(I1
(I1
tp2483
g11
I00
S'\x00\x00\x00\x00\x00\x00\xf0?'
p2484
tp2485
bg1
(g2
(I0
tp2486
g4
tp2487
Rp2488
(I1
(I1
tp2489
g11
I00
S'\xc6^aX\x1fM\xdf?'
p2490
tp2491
bg1
(g2
(I0
tp2492
g4
tp2493
Rp2494
(I1
(I1
tp2495
g11
I00
S'>:\x85KYG\xdd?'
p2496
tp2497
btp2498
a(g1
(g2
(I0
tp2499
g4
tp2500
Rp2501
(I1
(I1
tp2502
g11
I00
S'\x00\x00\x00\x00\x00\x00\xf0?'
p2503
tp2504
bg1
(g2
(I0
tp2505
g4
tp2506
Rp2507
(I1
(I1
tp2508
g11
I00
S'\x12$k\xa7bL\xdf?'
p2509
tp2510
bg1
(g2
(I0
tp2511
g4
tp2512
Rp2513
(I1
(I1
tp2514
g11
I00
S'b\x04fl\xaaF\xdd?'
p2515
tp2516
btp2517
a(g1
(g2
(I0
tp2518
g4
tp2519
Rp2520
(I1
(I1
tp2521
g11
I00
S'\x00\x00\x00\x00\x00\x00\xf0?'
p2522
tp2523
bg1
(g2
(I0
tp2524
g4
tp2525
Rp2526
(I1
(I1
tp2527
g11
I00
S'\xb7T\xdev\x8cL\xdf?'
p2528
tp2529
bg1
(g2
(I0
tp2530
g4
tp2531
Rp2532
(I1
(I1
tp2533
g11
I00
S'\x04)\xe4+\xd1F\xdd?'
p2534
tp2535
btp2536
a(g1
(g2
(I0
tp2537
g4
tp2538
Rp2539
(I1
(I1
tp2540
g11
I00
S'\x00\x00\x00\x00\x00\x00\xf0?'
p2541
tp2542
bg1
(g2
(I0
tp2543
g4
tp2544
Rp2545
(I1
(I1
tp2546
g11
I00
S'\xbed%\x12\xf3L\xdf?'
p2547
tp2548
bg1
(g2
(I0
tp2549
g4
tp2550
Rp2551
(I1
(I1
tp2552
g11
I00
S'?6\\C0G\xdd?'
p2553
tp2554
btp2555
a(g1
(g2
(I0
tp2556
g4
tp2557
Rp2558
(I1
(I1
tp2559
g11
I00
S'\x00\x00\x00\x00\x00\x00\xf0?'
p2560
tp2561
bg1
(g2
(I0
tp2562
g4
tp2563
Rp2564
(I1
(I1
tp2565
g11
I00
S'=\xf1\xfd}\xf2L\xdf?'
p2566
tp2567
bg1
(g2
(I0
tp2568
g4
tp2569
Rp2570
(I1
(I1
tp2571
g11
I00
S'\x84u\x0e\xba/G\xdd?'
p2572
tp2573
btp2574
a(g1
(g2
(I0
tp2575
g4
tp2576
Rp2577
(I1
(I1
tp2578
g11
I00
S'\x00\x00\x00\x00\x00\x00\xf0?'
p2579
tp2580
bg1
(g2
(I0
tp2581
g4
tp2582
Rp2583
(I1
(I1
tp2584
g11
I00
S'"\x82\xc8\x82\xbcL\xdf?'
p2585
tp2586
bg1
(g2
(I0
tp2587
g4
tp2588
Rp2589
(I1
(I1
tp2590
g11
I00
S'\x99D\xf2\xb2\xfdF\xdd?'
p2591
tp2592
btp2593
a(g1
(g2
(I0
tp2594
g4
tp2595
Rp2596
(I1
(I1
tp2597
g11
I00
S'\x00\x00\x00\x00\x00\x00\xf0?'
p2598
tp2599
bg1
(g2
(I0
tp2600
g4
tp2601
Rp2602
(I1
(I1
tp2603
g11
I00
S'\x17\xb4z\x8e\xc6N\xdf?'
p2604
tp2605
bg1
(g2
(I0
tp2606
g4
tp2607
Rp2608
(I1
(I1
tp2609
g11
I00
S'B\\]\x84\xe1H\xdd?'
p2610
tp2611
btp2612
a(g1
(g2
(I0
tp2613
g4
tp2614
Rp2615
(I1
(I1
tp2616
g11
I00
S'\x00\x00\x00\x00\x00\x00\xf0?'
p2617
tp2618
bg1
(g2
(I0
tp2619
g4
tp2620
Rp2621
(I1
(I1
tp2622
g11
I00
S'\xf8\x7f,\xf0\x01N\xdf?'
p2623
tp2624
bg1
(g2
(I0
tp2625
g4
tp2626
Rp2627
(I1
(I1
tp2628
g11
I00
S'\x9eJtK+H\xdd?'
p2629
tp2630
btp2631
a(g1
(g2
(I0
tp2632
g4
tp2633
Rp2634
(I1
(I1
tp2635
g11
I00
S'\x00\x00\x00\x00\x00\x00\xf0?'
p2636
tp2637
bg1
(g2
(I0
tp2638
g4
tp2639
Rp2640
(I1
(I1
tp2641
g11
I00
S'"r\xc6\x0e\xa7L\xdf?'
p2642
tp2643
bg1
(g2
(I0
tp2644
g4
tp2645
Rp2646
(I1
(I1
tp2647
g11
I00
S'\x0c\xeb,\xd1\xe9F\xdd?'
p2648
tp2649
btp2650
a(g1
(g2
(I0
tp2651
g4
tp2652
Rp2653
(I1
(I1
tp2654
g11
I00
S'\x00\x00\x00\x00\x00\x00\xf0?'
p2655
tp2656
bg1
(g2
(I0
tp2657
g4
tp2658
Rp2659
(I1
(I1
tp2660
g11
I00
S'\x93\xed_\xa3sM\xdf?'
p2661
tp2662
bg1
(g2
(I0
tp2663
g4
tp2664
Rp2665
(I1
(I1
tp2666
g11
I00
S'L\xd79j\xa7G\xdd?'
p2667
tp2668
btp2669
a(g1
(g2
(I0
tp2670
g4
tp2671
Rp2672
(I1
(I1
tp2673
g11
I00
S'\x00\x00\x00\x00\x00\x00\xf0?'
p2674
tp2675
bg1
(g2
(I0
tp2676
g4
tp2677
Rp2678
(I1
(I1
tp2679
g11
I00
S'U\xc9\x88\x98\xbeL\xdf?'
p2680
tp2681
bg1
(g2
(I0
tp2682
g4
tp2683
Rp2684
(I1
(I1
tp2685
g11
I00
S'.\x08\x9b\xa1\xffF\xdd?'
p2686
tp2687
btp2688
a(g1
(g2
(I0
tp2689
g4
tp2690
Rp2691
(I1
(I1
tp2692
g11
I00
S'\x00\x00\x00\x00\x00\x00\xf0?'
p2693
tp2694
bg1
(g2
(I0
tp2695
g4
tp2696
Rp2697
(I1
(I1
tp2698
g11
I00
S'";|\xc4pM\xdf?'
p2699
tp2700
bg1
(g2
(I0
tp2701
g4
tp2702
Rp2703
(I1
(I1
tp2704
g11
I00
S"[''\xc1\xa4G\xdd?"
p2705
tp2706
btp2707
a(g1
(g2
(I0
tp2708
g4
tp2709
Rp2710
(I1
(I1
tp2711
g11
I00
S'\x00\x00\x00\x00\x00\x00\xf0?'
p2712
tp2713
bg1
(g2
(I0
tp2714
g4
tp2715
Rp2716
(I1
(I1
tp2717
g11
I00
S'\xb6\xc8\xbd\xe1\xfbL\xdf?'
p2718
tp2719
bg1
(g2
(I0
tp2720
g4
tp2721
Rp2722
(I1
(I1
tp2723
g11
I00
S"'=\xc3m8G\xdd?"
p2724
tp2725
btp2726
a(g1
(g2
(I0
tp2727
g4
tp2728
Rp2729
(I1
(I1
tp2730
g11
I00
S'\x00\x00\x00\x00\x00\x00\xf0?'
p2731
tp2732
bg1
(g2
(I0
tp2733
g4
tp2734
Rp2735
(I1
(I1
tp2736
g11
I00
S'Kl\x86\x13mL\xdf?'
p2737
tp2738
bg1
(g2
(I0
tp2739
g4
tp2740
Rp2741
(I1
(I1
tp2742
g11
I00
S'\x1b\xeb\x14\x15\xb4F\xdd?'
p2743
tp2744
btp2745
a(g1
(g2
(I0
tp2746
g4
tp2747
Rp2748
(I1
(I1
tp2749
g11
I00
S'\x00\x00\x00\x00\x00\x00\xf0?'
p2750
tp2751
bg1
(g2
(I0
tp2752
g4
tp2753
Rp2754
(I1
(I1
tp2755
g11
I00
S'/\x19\xe0ttL\xdf?'
p2756
tp2757
bg1
(g2
(I0
tp2758
g4
tp2759
Rp2760
(I1
(I1
tp2761
g11
I00
S'\xf9\x83\x0c\xec\xbaF\xdd?'
p2762
tp2763
btp2764
a(g1
(g2
(I0
tp2765
g4
tp2766
Rp2767
(I1
(I1
tp2768
g11
I00
S'\x00\x00\x00\x00\x00\x00\xf0?'
p2769
tp2770
bg1
(g2
(I0
tp2771
g4
tp2772
Rp2773
(I1
(I1
tp2774
g11
I00
S'V\x9a>\x17\xb0L\xdf?'
p2775
tp2776
bg1
(g2
(I0
tp2777
g4
tp2778
Rp2779
(I1
(I1
tp2780
g11
I00
S'I\x1dG0\xf2F\xdd?'
p2781
tp2782
btp2783
a(g1
(g2
(I0
tp2784
g4
tp2785
Rp2786
(I1
(I1
tp2787
g11
I00
S'\x00\x00\x00\x00\x00\x00\xf0?'
p2788
tp2789
bg1
(g2
(I0
tp2790
g4
tp2791
Rp2792
(I1
(I1
tp2793
g11
I00
S'e\xf8\t\xc8\xe9L\xdf?'
p2794
tp2795
bg1
(g2
(I0
tp2796
g4
tp2797
Rp2798
(I1
(I1
tp2799
g11
I00
S"/]k\xa7'G\xdd?"
p2800
tp2801
btp2802
a(g1
(g2
(I0
tp2803
g4
tp2804
Rp2805
(I1
(I1
tp2806
g11
I00
S'\x00\x00\x00\x00\x00\x00\xf0?'
p2807
tp2808
bg1
(g2
(I0
tp2809
g4
tp2810
Rp2811
(I1
(I1
tp2812
g11
I00
S'|\x99\xbe^{M\xdf?'
p2813
tp2814
bg1
(g2
(I0
tp2815
g4
tp2816
Rp2817
(I1
(I1
tp2818
g11
I00
S'sM\xa5\x94\xaeG\xdd?'
p2819
tp2820
btp2821
a(g1
(g2
(I0
tp2822
g4
tp2823
Rp2824
(I1
(I1
tp2825
g11
I00
S'\x00\x00\x00\x00\x00\x00\xf0?'
p2826
tp2827
bg1
(g2
(I0
tp2828
g4
tp2829
Rp2830
(I1
(I1
tp2831
g11
I00
S";f\x0f'\xf1L\xdf?"
p2832
tp2833
bg1
(g2
(I0
tp2834
g4
tp2835
Rp2836
(I1
(I1
tp2837
g11
I00
S'\x07s=|.G\xdd?'
p2838
tp2839
btp2840
a(g1
(g2
(I0
tp2841
g4
tp2842
Rp2843
(I1
(I1
tp2844
g11
I00
S'\x00\x00\x00\x00\x00\x00\xf0?'
p2845
tp2846
bg1
(g2
(I0
tp2847
g4
tp2848
Rp2849
(I1
(I1
tp2850
g11
I00
S'\x1e\xf04\xac\x99L\xdf?'
p2851
tp2852
bg1
(g2
(I0
tp2853
g4
tp2854
Rp2855
(I1
(I1
tp2856
g11
I00
S'\xbf\xd2\x92i\xddF\xdd?'
p2857
tp2858
btp2859
a(g1
(g2
(I0
tp2860
g4
tp2861
Rp2862
(I1
(I1
tp2863
g11
I00
S'\x00\x00\x00\x00\x00\x00\xf0?'
p2864
tp2865
bg1
(g2
(I0
tp2866
g4
tp2867
Rp2868
(I1
(I1
tp2869
g11
I00
S'\xc8\n\x86E\x98L\xdf?'
p2870
tp2871
bg1
(g2
(I0
tp2872
g4
tp2873
Rp2874
(I1
(I1
tp2875
g11
I00
S'\x991)\x1d\xdcF\xdd?'
p2876
tp2877
btp2878
a(g1
(g2
(I0
tp2879
g4
tp2880
Rp2881
(I1
(I1
tp2882
g11
I00
S'\x00\x00\x00\x00\x00\x00\xf0?'
p2883
tp2884
bg1
(g2
(I0
tp2885
g4
tp2886
Rp2887
(I1
(I1
tp2888
g11
I00
S'kv\xce\x92jL\xdf?'
p2889
tp2890
bg1
(g2
(I0
tp2891
g4
tp2892
Rp2893
(I1
(I1
tp2894
g11
I00
S'\t\xbbJ\xc3\xb1F\xdd?'
p2895
tp2896
btp2897
a(g1
(g2
(I0
tp2898
g4
tp2899
Rp2900
(I1
(I1
tp2901
g11
I00
S'\x00\x00\x00\x00\x00\x00\xf0?'
p2902
tp2903
bg1
(g2
(I0
tp2904
g4
tp2905
Rp2906
(I1
(I1
tp2907
g11
I00
S'\xe5\xe9T\x14\x95L\xdf?'
p2908
tp2909
bg1
(g2
(I0
tp2910
g4
tp2911
Rp2912
(I1
(I1
tp2913
g11
I00
S"\xcfV\xd2'\xd9F\xdd?"
p2914
tp2915
btp2916
a(g1
(g2
(I0
tp2917
g4
tp2918
Rp2919
(I1
(I1
tp2920
g11
I00
S'\x00\x00\x00\x00\x00\x00\xf0?'
p2921
tp2922
bg1
(g2
(I0
tp2923
g4
tp2924
Rp2925
(I1
(I1
tp2926
g11
I00
S'l\xf5\x8eY\xccL\xdf?'
p2927
tp2928
bg1
(g2
(I0
tp2929
g4
tp2930
Rp2931
(I1
(I1
tp2932
g11
I00
S'\xc6w\xc0`\x0cG\xdd?'
p2933
tp2934
btp2935
a(g1
(g2
(I0
tp2936
g4
tp2937
Rp2938
(I1
(I1
tp2939
g11
I00
S'\x00\x00\x00\x00\x00\x00\xf0?'
p2940
tp2941
bg1
(g2
(I0
tp2942
g4
tp2943
Rp2944
(I1
(I1
tp2945
g11
I00
S'\x95\x05\xc3\xf1\xbdL\xdf?'
p2946
tp2947
bg1
(g2
(I0
tp2948
g4
tp2949
Rp2950
(I1
(I1
tp2951
g11
I00
S'\x9f&\x0c\x07\xffF\xdd?'
p2952
tp2953
btp2954
a(g1
(g2
(I0
tp2955
g4
tp2956
Rp2957
(I1
(I1
tp2958
g11
I00
S'\x00\x00\x00\x00\x00\x00\xf0?'
p2959
tp2960
bg1
(g2
(I0
tp2961
g4
tp2962
Rp2963
(I1
(I1
tp2964
g11
I00
S'\xd8`\x0c\t\x98L\xdf?'
p2965
tp2966
bg1
(g2
(I0
tp2967
g4
tp2968
Rp2969
(I1
(I1
tp2970
g11
I00
S'$o\x1d\xe5\xdbF\xdd?'
p2971
tp2972
btp2973
a(g1
(g2
(I0
tp2974
g4
tp2975
Rp2976
(I1
(I1
tp2977
g11
I00
S'\x00\x00\x00\x00\x00\x00\xf0?'
p2978
tp2979
bg1
(g2
(I0
tp2980
g4
tp2981
Rp2982
(I1
(I1
tp2983
g11
I00
S'\xaad\xca\xe1\xdfL\xdf?'
p2984
tp2985
bg1
(g2
(I0
tp2986
g4
tp2987
Rp2988
(I1
(I1
tp2989
g11
I00
S'["\xc6z\x1eG\xdd?'
p2990
tp2991
btp2992
a(g1
(g2
(I0
tp2993
g4
tp2994
Rp2995
(I1
(I1
tp2996
g11
I00
S'\x00\x00\x00\x00\x00\x00\xf0?'
p2997
tp2998
bg1
(g2
(I0
tp2999
g4
tp3000
Rp3001
(I1
(I1
tp3002
g11
I00
S'\xd9+\xb7\xa7\xa8L\xdf?'
p3003
tp3004
bg1
(g2
(I0
tp3005
g4
tp3006
Rp3007
(I1
(I1
tp3008
g11
I00
S'\x1c$*L\xebF\xdd?'
p3009
tp3010
btp3011
a(g1
(g2
(I0
tp3012
g4
tp3013
Rp3014
(I1
(I1
tp3015
g11
I00
S'\x00\x00\x00\x00\x00\x00\xf0?'
p3016
tp3017
bg1
(g2
(I0
tp3018
g4
tp3019
Rp3020
(I1
(I1
tp3021
g11
I00
S'\xa7\xd5\xee\x86\xd9L\xdf?'
p3022
tp3023
bg1
(g2
(I0
tp3024
g4
tp3025
Rp3026
(I1
(I1
tp3027
g11
I00
S'w\x86\x10\x97\x18G\xdd?'
p3028
tp3029
btp3030
a(g1
(g2
(I0
tp3031
g4
tp3032
Rp3033
(I1
(I1
tp3034
g11
I00
S'\x00\x00\x00\x00\x00\x00\xf0?'
p3035
tp3036
bg1
(g2
(I0
tp3037
g4
tp3038
Rp3039
(I1
(I1
tp3040
g11
I00
S'~\xe02\x08&M\xdf?'
p3041
tp3042
bg1
(g2
(I0
tp3043
g4
tp3044
Rp3045
(I1
(I1
tp3046
g11
I00
S'dj\xf9}_G\xdd?'
p3047
tp3048
btp3049
a(g1
(g2
(I0
tp3050
g4
tp3051
Rp3052
(I1
(I1
tp3053
g11
I00
S'\x00\x00\x00\x00\x00\x00\xf0?'
p3054
tp3055
bg1
(g2
(I0
tp3056
g4
tp3057
Rp3058
(I1
(I1
tp3059
g11
I00
S'\x96[$\xc2\x92L\xdf?'
p3060
tp3061
bg1
(g2
(I0
tp3062
g4
tp3063
Rp3064
(I1
(I1
tp3065
g11
I00
S'\x86\xce&\x01\xd7F\xdd?'
p3066
tp3067
btp3068
a(g1
(g2
(I0
tp3069
g4
tp3070
Rp3071
(I1
(I1
tp3072
g11
I00
S'\x00\x00\x00\x00\x00\x00\xf0?'
p3073
tp3074
bg1
(g2
(I0
tp3075
g4
tp3076
Rp3077
(I1
(I1
tp3078
g11
I00
S'\xc6\xfc\x03\x92\xc6L\xdf?'
p3079
tp3080
bg1
(g2
(I0
tp3081
g4
tp3082
Rp3083
(I1
(I1
tp3084
g11
I00
S'\xef\xcf\x91\x05\x07G\xdd?'
p3085
tp3086
btp3087
a(g1
(g2
(I0
tp3088
g4
tp3089
Rp3090
(I1
(I1
tp3091
g11
I00
S'\x00\x00\x00\x00\x00\x00\xf0?'
p3092
tp3093
bg1
(g2
(I0
tp3094
g4
tp3095
Rp3096
(I1
(I1
tp3097
g11
I00
S'\xa0M\xb1\xbe\xf3L\xdf?'
p3098
tp3099
bg1
(g2
(I0
tp3100
g4
tp3101
Rp3102
(I1
(I1
tp3103
g11
I00
S',\x19E\xe30G\xdd?'
p3104
tp3105
btp3106
a(g1
(g2
(I0
tp3107
g4
tp3108
Rp3109
(I1
(I1
tp3110
g11
I00
S'\x00\x00\x00\x00\x00\x00\xf0?'
p3111
tp3112
bg1
(g2
(I0
tp3113
g4
tp3114
Rp3115
(I1
(I1
tp3116
g11
I00
S'k8d\xb7\x8bM\xdf?'
p3117
tp3118
bg1
(g2
(I0
tp3119
g4
tp3120
Rp3121
(I1
(I1
tp3122
g11
I00
S' \x14\xda\xba\xbdG\xdd?'
p3123
tp3124
btp3125
a(g1
(g2
(I0
tp3126
g4
tp3127
Rp3128
(I1
(I1
tp3129
g11
I00
S'\x00\x00\x00\x00\x00\x00\xf0?'
p3130
tp3131
bg1
(g2
(I0
tp3132
g4
tp3133
Rp3134
(I1
(I1
tp3135
g11
I00
S'\x0f\xac\x10\xdb\x8bL\xdf?'
p3136
tp3137
bg1
(g2
(I0
tp3138
g4
tp3139
Rp3140
(I1
(I1
tp3141
g11
I00
S'F\xd2\x7f\x9b\xd0F\xdd?'
p3142
tp3143
btp3144
a(g1
(g2
(I0
tp3145
g4
tp3146
Rp3147
(I1
(I1
tp3148
g11
I00
S'\x00\x00\x00\x00\x00\x00\xf0?'
p3149
tp3150
bg1
(g2
(I0
tp3151
g4
tp3152
Rp3153
(I1
(I1
tp3154
g11
I00
S'i\x16\x89\xbfnM\xdf?'
p3155
tp3156
bg1
(g2
(I0
tp3157
g4
tp3158
Rp3159
(I1
(I1
tp3160
g11
I00
S'\x83O\x0f\xe2\xa2G\xdd?'
p3161
tp3162
btp3163
a(g1
(g2
(I0
tp3164
g4
tp3165
Rp3166
(I1
(I1
tp3167
g11
I00
S'\x00\x00\x00\x00\x00\x00\xf0?'
p3168
tp3169
bg1
(g2
(I0
tp3170
g4
tp3171
Rp3172
(I1
(I1
tp3173
g11
I00
S'_\xc7\xf6\xa9\xe9L\xdf?'
p3174
tp3175
bg1
(g2
(I0
tp3176
g4
tp3177
Rp3178
(I1
(I1
tp3179
g11
I00
S"\xfb\n\x8c\x8b'G\xdd?"
p3180
tp3181
btp3182
a(g1
(g2
(I0
tp3183
g4
tp3184
Rp3185
(I1
(I1
tp3186
g11
I00
S'\x00\x00\x00\x00\x00\x00\xf0?'
p3187
tp3188
bg1
(g2
(I0
tp3189
g4
tp3190
Rp3191
(I1
(I1
tp3192
g11
I00
S'\xea\xdfg\xd4\x93L\xdf?'
p3193
tp3194
bg1
(g2
(I0
tp3195
g4
tp3196
Rp3197
(I1
(I1
tp3198
g11
I00
S'6\xe4S\xff\xd7F\xdd?'
p3199
tp3200
btp3201
a(g1
(g2
(I0
tp3202
g4
tp3203
Rp3204
(I1
(I1
tp3205
g11
I00
S'\x00\x00\x00\x00\x00\x00\xf0?'
p3206
tp3207
bg1
(g2
(I0
tp3208
g4
tp3209
Rp3210
(I1
(I1
tp3211
g11
I00
S']\xbfVi\x93L\xdf?'
p3212
tp3213
bg1
(g2
(I0
tp3214
g4
tp3215
Rp3216
(I1
(I1
tp3217
g11
I00
S'dC\x1a\x9c\xd7F\xdd?'
p3218
tp3219
btp3220
a(g1
(g2
(I0
tp3221
g4
tp3222
Rp3223
(I1
(I1
tp3224
g11
I00
S'\x00\x00\x00\x00\x00\x00\xf0?'
p3225
tp3226
bg1
(g2
(I0
tp3227
g4
tp3228
Rp3229
(I1
(I1
tp3230
g11
I00
S'7\x15\x85V\xcbL\xdf?'
p3231
tp3232
bg1
(g2
(I0
tp3233
g4
tp3234
Rp3235
(I1
(I1
tp3236
g11
I00
S'\xcb\\\xafp\x0bG\xdd?'
p3237
tp3238
btp3239
a(g1
(g2
(I0
tp3240
g4
tp3241
Rp3242
(I1
(I1
tp3243
g11
I00
S'\x00\x00\x00\x00\x00\x00\xf0?'
p3244
tp3245
bg1
(g2
(I0
tp3246
g4
tp3247
Rp3248
(I1
(I1
tp3249
g11
I00
S'F\xa0\xe1K\xecL\xdf?'
p3250
tp3251
bg1
(g2
(I0
tp3252
g4
tp3253
Rp3254
(I1
(I1
tp3255
g11
I00
S'\x8d\xbd\x1b\xfc)G\xdd?'
p3256
tp3257
btp3258
a(g1
(g2
(I0
tp3259
g4
tp3260
Rp3261
(I1
(I1
tp3262
g11
I00
S'\x00\x00\x00\x00\x00\x00\xf0?'
p3263
tp3264
bg1
(g2
(I0
tp3265
g4
tp3266
Rp3267
(I1
(I1
tp3268
g11
I00
S'(Q\xe6^iL\xdf?'
p3269
tp3270
bg1
(g2
(I0
tp3271
g4
tp3272
Rp3273
(I1
(I1
tp3274
g11
I00
S'1\xfd\xef\xa5\xb0F\xdd?'
p3275
tp3276
btp3277
a(g1
(g2
(I0
tp3278
g4
tp3279
Rp3280
(I1
(I1
tp3281
g11
I00
S'\x00\x00\x00\x00\x00\x00\xf0?'
p3282
tp3283
bg1
(g2
(I0
tp3284
g4
tp3285
Rp3286
(I1
(I1
tp3287
g11
I00
S'\xdba\xe4&<M\xdf?'
p3288
tp3289
bg1
(g2
(I0
tp3290
g4
tp3291
Rp3292
(I1
(I1
tp3293
g11
I00
S'\xbfQ\xf7\xfdsG\xdd?'
p3294
tp3295
btp3296
a(g1
(g2
(I0
tp3297
g4
tp3298
Rp3299
(I1
(I1
tp3300
g11
I00
S'\x00\x00\x00\x00\x00\x00\xf0?'
p3301
tp3302
bg1
(g2
(I0
tp3303
g4
tp3304
Rp3305
(I1
(I1
tp3306
g11
I00
S'\xea9vZ\xa8L\xdf?'
p3307
tp3308
bg1
(g2
(I0
tp3309
g4
tp3310
Rp3311
(I1
(I1
tp3312
g11
I00
S'\x81\xad\x91\x04\xebF\xdd?'
p3313
tp3314
btp3315
a(g1
(g2
(I0
tp3316
g4
tp3317
Rp3318
(I1
(I1
tp3319
g11
I00
S'\x00\x00\x00\x00\x00\x00\xf0?'
p3320
tp3321
bg1
(g2
(I0
tp3322
g4
tp3323
Rp3324
(I1
(I1
tp3325
g11
I00
S'6\x88\xe0<\x87L\xdf?'
p3326
tp3327
bg1
(g2
(I0
tp3328
g4
tp3329
Rp3330
(I1
(I1
tp3331
g11
I00
S'6\xcd\xe5S\xccF\xdd?'
p3332
tp3333
btp3334
a(g1
(g2
(I0
tp3335
g4
tp3336
Rp3337
(I1
(I1
tp3338
g11
I00
S'\x00\x00\x00\x00\x00\x00\xf0?'
p3339
tp3340
bg1
(g2
(I0
tp3341
g4
tp3342
Rp3343
(I1
(I1
tp3344
g11
I00
S'\xba\xe7\x9a=\xcfL\xdf?'
p3345
tp3346
bg1
(g2
(I0
tp3347
g4
tp3348
Rp3349
(I1
(I1
tp3350
g11
I00
S'F#\x99\x0e\x0fG\xdd?'
p3351
tp3352
btp3353
a(g1
(g2
(I0
tp3354
g4
tp3355
Rp3356
(I1
(I1
tp3357
g11
I00
S'\x00\x00\x00\x00\x00\x00\xf0?'
p3358
tp3359
bg1
(g2
(I0
tp3360
g4
tp3361
Rp3362
(I1
(I1
tp3363
g11
I00
S'\xdb\x08jr\xb1L\xdf?'
p3364
tp3365
bg1
(g2
(I0
tp3366
g4
tp3367
Rp3368
(I1
(I1
tp3369
g11
I00
S'\xbeC\x05r\xf3F\xdd?'
p3370
tp3371
btp3372
a(g1
(g2
(I0
tp3373
g4
tp3374
Rp3375
(I1
(I1
tp3376
g11
I00
S'\x00\x00\x00\x00\x00\x00\xf0?'
p3377
tp3378
bg1
(g2
(I0
tp3379
g4
tp3380
Rp3381
(I1
(I1
tp3382
g11
I00
S'2({\xd6hL\xdf?'
p3383
tp3384
bg1
(g2
(I0
tp3385
g4
tp3386
Rp3387
(I1
(I1
tp3388
g11
I00
S"\x03\xbf\x82'\xb0F\xdd?"
p3389
tp3390
btp3391
a(g1
(g2
(I0
tp3392
g4
tp3393
Rp3394
(I1
(I1
tp3395
g11
I00
S'\x00\x00\x00\x00\x00\x00\xf0?'
p3396
tp3397
bg1
(g2
(I0
tp3398
g4
tp3399
Rp3400
(I1
(I1
tp3401
g11
I00
S'J\xa4w2sL\xdf?'
p3402
tp3403
bg1
(g2
(I0
tp3404
g4
tp3405
Rp3406
(I1
(I1
tp3407
g11
I00
S'\x8fSA\xc1\xb9F\xdd?'
p3408
tp3409
btp3410
a(g1
(g2
(I0
tp3411
g4
tp3412
Rp3413
(I1
(I1
tp3414
g11
I00
S'\x00\x00\x00\x00\x00\x00\xf0?'
p3415
tp3416
bg1
(g2
(I0
tp3417
g4
tp3418
Rp3419
(I1
(I1
tp3420
g11
I00
S'\x9a\xd4?\xc2JM\xdf?'
p3421
tp3422
bg1
(g2
(I0
tp3423
g4
tp3424
Rp3425
(I1
(I1
tp3426
g11
I00
S'F\x92z\x87\x81G\xdd?'
p3427
tp3428
btp3429
a(g1
(g2
(I0
tp3430
g4
tp3431
Rp3432
(I1
(I1
tp3433
g11
I00
S'\x00\x00\x00\x00\x00\x00\xf0?'
p3434
tp3435
bg1
(g2
(I0
tp3436
g4
tp3437
Rp3438
(I1
(I1
tp3439
g11
I00
S'\x12)Z\xd2iL\xdf?'
p3440
tp3441
bg1
(g2
(I0
tp3442
g4
tp3443
Rp3444
(I1
(I1
tp3445
g11
I00
S'e\n\xef\x10\xb1F\xdd?'
p3446
tp3447
btp3448
a(g1
(g2
(I0
tp3449
g4
tp3450
Rp3451
(I1
(I1
tp3452
g11
I00
S'\x00\x00\x00\x00\x00\x00\xf0?'
p3453
tp3454
bg1
(g2
(I0
tp3455
g4
tp3456
Rp3457
(I1
(I1
tp3458
g11
I00
S'\xa5\xf9\xeetGM\xdf?'
p3459
tp3460
bg1
(g2
(I0
tp3461
g4
tp3462
Rp3463
(I1
(I1
tp3464
g11
I00
S'\xf1X\x11x~G\xdd?'
p3465
tp3466
btp3467
a(g1
(g2
(I0
tp3468
g4
tp3469
Rp3470
(I1
(I1
tp3471
g11
I00
S'\x00\x00\x00\x00\x00\x00\xf0?'
p3472
tp3473
bg1
(g2
(I0
tp3474
g4
tp3475
Rp3476
(I1
(I1
tp3477
g11
I00
S'fbN\x8c\x9eL\xdf?'
p3478
tp3479
bg1
(g2
(I0
tp3480
g4
tp3481
Rp3482
(I1
(I1
tp3483
g11
I00
S'\x9d\x9bB\xee\xe1F\xdd?'
p3484
tp3485
btp3486
a(g1
(g2
(I0
tp3487
g4
tp3488
Rp3489
(I1
(I1
tp3490
g11
I00
S'\x00\x00\x00\x00\x00\x00\xf0?'
p3491
tp3492
bg1
(g2
(I0
tp3493
g4
tp3494
Rp3495
(I1
(I1
tp3496
g11
I00
S'Bu\x83|\x04M\xdf?'
p3497
tp3498
bg1
(g2
(I0
tp3499
g4
tp3500
Rp3501
(I1
(I1
tp3502
g11
I00
S'7)6g@G\xdd?'
p3503
tp3504
btp3505
a(g1
(g2
(I0
tp3506
g4
tp3507
Rp3508
(I1
(I1
tp3509
g11
I00
S'\x00\x00\x00\x00\x00\x00\xf0?'
p3510
tp3511
bg1
(g2
(I0
tp3512
g4
tp3513
Rp3514
(I1
(I1
tp3515
g11
I00
S'\xc3\xd5R\xff\xdeL\xdf?'
p3516
tp3517
bg1
(g2
(I0
tp3518
g4
tp3519
Rp3520
(I1
(I1
tp3521
g11
I00
S'\xfa\x98\xe4\xa8\x1dG\xdd?'
p3522
tp3523
btp3524
a(g1
(g2
(I0
tp3525
g4
tp3526
Rp3527
(I1
(I1
tp3528
g11
I00
S'\x00\x00\x00\x00\x00\x00\xf0?'
p3529
tp3530
bg1
(g2
(I0
tp3531
g4
tp3532
Rp3533
(I1
(I1
tp3534
g11
I00
S'0\xe2q8\xa0L\xdf?'
p3535
tp3536
bg1
(g2
(I0
tp3537
g4
tp3538
Rp3539
(I1
(I1
tp3540
g11
I00
S'6\x98\n{\xe3F\xdd?'
p3541
tp3542
btp3543
a(g1
(g2
(I0
tp3544
g4
tp3545
Rp3546
(I1
(I1
tp3547
g11
I00
S'\x00\x00\x00\x00\x00\x00\xf0?'
p3548
tp3549
bg1
(g2
(I0
tp3550
g4
tp3551
Rp3552
(I1
(I1
tp3553
g11
I00
S'\xff\t-\xaa\x8fL\xdf?'
p3554
tp3555
bg1
(g2
(I0
tp3556
g4
tp3557
Rp3558
(I1
(I1
tp3559
g11
I00
S'\x1a\xd60#\xd4F\xdd?'
p3560
tp3561
btp3562
a(g1
(g2
(I0
tp3563
g4
tp3564
Rp3565
(I1
(I1
tp3566
g11
I00
S'\x00\x00\x00\x00\x00\x00\xf0?'
p3567
tp3568
bg1
(g2
(I0
tp3569
g4
tp3570
Rp3571
(I1
(I1
tp3572
g11
I00
S"\xb7\x9c')\xa5L\xdf?"
p3573
tp3574
bg1
(g2
(I0
tp3575
g4
tp3576
Rp3577
(I1
(I1
tp3578
g11
I00
S'vS\x1f\x0f\xe8F\xdd?'
p3579
tp3580
btp3581
a(g1
(g2
(I0
tp3582
g4
tp3583
Rp3584
(I1
(I1
tp3585
g11
I00
S'\x00\x00\x00\x00\x00\x00\xf0?'
p3586
tp3587
bg1
(g2
(I0
tp3588
g4
tp3589
Rp3590
(I1
(I1
tp3591
g11
I00
S'+\xb0\xd8e\xa0L\xdf?'
p3592
tp3593
bg1
(g2
(I0
tp3594
g4
tp3595
Rp3596
(I1
(I1
tp3597
g11
I00
S'\x1d!\x1e\xa5\xe3F\xdd?'
p3598
tp3599
btp3600
a(g1
(g2
(I0
tp3601
g4
tp3602
Rp3603
(I1
(I1
tp3604
g11
I00
S'\x00\x00\x00\x00\x00\x00\xf0?'
p3605
tp3606
bg1
(g2
(I0
tp3607
g4
tp3608
Rp3609
(I1
(I1
tp3610
g11
I00
S'\x0bq\xa0\xa2\x98L\xdf?'
p3611
tp3612
bg1
(g2
(I0
tp3613
g4
tp3614
Rp3615
(I1
(I1
tp3616
g11
I00
S'\x97\xebqs\xdcF\xdd?'
p3617
tp3618
btp3619
a(g1
(g2
(I0
tp3620
g4
tp3621
Rp3622
(I1
(I1
tp3623
g11
I00
S'\x00\x00\x00\x00\x00\x00\xf0?'
p3624
tp3625
bg1
(g2
(I0
tp3626
g4
tp3627
Rp3628
(I1
(I1
tp3629
g11
I00
S'J\xddT\x9b\xf1L\xdf?'
p3630
tp3631
bg1
(g2
(I0
tp3632
g4
tp3633
Rp3634
(I1
(I1
tp3635
g11
I00
S'y\xf9\xfe\xe7.G\xdd?'
p3636
tp3637
btp3638
a(g1
(g2
(I0
tp3639
g4
tp3640
Rp3641
(I1
(I1
tp3642
g11
I00
S'\x00\x00\x00\x00\x00\x00\xf0?'
p3643
tp3644
bg1
(g2
(I0
tp3645
g4
tp3646
Rp3647
(I1
(I1
tp3648
g11
I00
S'\xd0U-\xd7\xd9L\xdf?'
p3649
tp3650
bg1
(g2
(I0
tp3651
g4
tp3652
Rp3653
(I1
(I1
tp3654
g11
I00
S'\x86\x86n\xe1\x18G\xdd?'
p3655
tp3656
btp3657
a(g1
(g2
(I0
tp3658
g4
tp3659
Rp3660
(I1
(I1
tp3661
g11
I00
S'\x00\x00\x00\x00\x00\x00\xf0?'
p3662
tp3663
bg1
(g2
(I0
tp3664
g4
tp3665
Rp3666
(I1
(I1
tp3667
g11
I00
S'B?j\xe5\xfcL\xdf?'
p3668
tp3669
bg1
(g2
(I0
tp3670
g4
tp3671
Rp3672
(I1
(I1
tp3673
g11
I00
S'\x190k^9G\xdd?'
p3674
tp3675
btp3676
a(g1
(g2
(I0
tp3677
g4
tp3678
Rp3679
(I1
(I1
tp3680
g11
I00
S'\x00\x00\x00\x00\x00\x00\xf0?'
p3681
tp3682
bg1
(g2
(I0
tp3683
g4
tp3684
Rp3685
(I1
(I1
tp3686
g11
I00
S'=\x0f\x88\x9f\xa1L\xdf?'
p3687
tp3688
bg1
(g2
(I0
tp3689
g4
tp3690
Rp3691
(I1
(I1
tp3692
g11
I00
S'\x18\xfa\xd3\xc7\xe4F\xdd?'
p3693
tp3694
btp3695
a(g1
(g2
(I0
tp3696
g4
tp3697
Rp3698
(I1
(I1
tp3699
g11
I00
S'\x00\x00\x00\x00\x00\x00\xf0?'
p3700
tp3701
bg1
(g2
(I0
tp3702
g4
tp3703
Rp3704
(I1
(I1
tp3705
g11
I00
S'\x1eF\x05u\xc8L\xdf?'
p3706
tp3707
bg1
(g2
(I0
tp3708
g4
tp3709
Rp3710
(I1
(I1
tp3711
g11
I00
S'\x08\x1b3\xc5\x08G\xdd?'
p3712
tp3713
btp3714
a(g1
(g2
(I0
tp3715
g4
tp3716
Rp3717
(I1
(I1
tp3718
g11
I00
S'\x00\x00\x00\x00\x00\x00\xf0?'
p3719
tp3720
bg1
(g2
(I0
tp3721
g4
tp3722
Rp3723
(I1
(I1
tp3724
g11
I00
S'\x8c\x9d\xf3YEM\xdf?'
p3725
tp3726
bg1
(g2
(I0
tp3727
g4
tp3728
Rp3729
(I1
(I1
tp3730
g11
I00
S'\x9e\x9d\x8e\x84|G\xdd?'
p3731
tp3732
btp3733
a(g1
(g2
(I0
tp3734
g4
tp3735
Rp3736
(I1
(I1
tp3737
g11
I00
S'\x00\x00\x00\x00\x00\x00\xf0?'
p3738
tp3739
bg1
(g2
(I0
tp3740
g4
tp3741
Rp3742
(I1
(I1
tp3743
g11
I00
S'\x7f27\x84\x18M\xdf?'
p3744
tp3745
bg1
(g2
(I0
tp3746
g4
tp3747
Rp3748
(I1
(I1
tp3749
g11
I00
S'\x97\xf3a\xf7RG\xdd?'
p3750
tp3751
btp3752
a(g1
(g2
(I0
tp3753
g4
tp3754
Rp3755
(I1
(I1
tp3756
g11
I00
S'\x00\x00\x00\x00\x00\x00\xf0?'
p3757
tp3758
bg1
(g2
(I0
tp3759
g4
tp3760
Rp3761
(I1
(I1
tp3762
g11
I00
S'\xeb\x95\x98\x88\xfdL\xdf?'
p3763
tp3764
bg1
(g2
(I0
tp3765
g4
tp3766
Rp3767
(I1
(I1
tp3768
g11
I00
S'x\x1d\xa6\xf59G\xdd?'
p3769
tp3770
btp3771
a(g1
(g2
(I0
tp3772
g4
tp3773
Rp3774
(I1
(I1
tp3775
g11
I00
S'\x00\x00\x00\x00\x00\x00\xf0?'
p3776
tp3777
bg1
(g2
(I0
tp3778
g4
tp3779
Rp3780
(I1
(I1
tp3781
g11
I00
S'F\xefw\x196M\xdf?'
p3782
tp3783
bg1
(g2
(I0
tp3784
g4
tp3785
Rp3786
(I1
(I1
tp3787
g11
I00
S'\x90%\x03bnG\xdd?'
p3788
tp3789
btp3790
a(g1
(g2
(I0
tp3791
g4
tp3792
Rp3793
(I1
(I1
tp3794
g11
I00
S'\x00\x00\x00\x00\x00\x00\xf0?'
p3795
tp3796
bg1
(g2
(I0
tp3797
g4
tp3798
Rp3799
(I1
(I1
tp3800
g11
I00
S'\xb8&\x9a0\x8fL\xdf?'
p3801
tp3802
bg1
(g2
(I0
tp3803
g4
tp3804
Rp3805
(I1
(I1
tp3806
g11
I00
S'\x15u\x85\xb2\xd3F\xdd?'
p3807
tp3808
btp3809
a(g1
(g2
(I0
tp3810
g4
tp3811
Rp3812
(I1
(I1
tp3813
g11
I00
S'\x00\x00\x00\x00\x00\x00\xf0?'
p3814
tp3815
bg1
(g2
(I0
tp3816
g4
tp3817
Rp3818
(I1
(I1
tp3819
g11
I00
S'+\xee\xd1\xe4dM\xdf?'
p3820
tp3821
bg1
(g2
(I0
tp3822
g4
tp3823
Rp3824
(I1
(I1
tp3825
g11
I00
S'a\xe7\x15\xc0\x99G\xdd?'
p3826
tp3827
btp3828
a(g1
(g2
(I0
tp3829
g4
tp3830
Rp3831
(I1
(I1
tp3832
g11
I00
S'\x00\x00\x00\x00\x00\x00\xf0?'
p3833
tp3834
bg1
(g2
(I0
tp3835
g4
tp3836
Rp3837
(I1
(I1
tp3838
g11
I00
S'uS\xad\xd1\x93L\xdf?'
p3839
tp3840
bg1
(g2
(I0
tp3841
g4
tp3842
Rp3843
(I1
(I1
tp3844
g11
I00
S'\x83\x81\xcc\xfc\xd7F\xdd?'
p3845
tp3846
btp3847
a(g1
(g2
(I0
tp3848
g4
tp3849
Rp3850
(I1
(I1
tp3851
g11
I00
S'\x00\x00\x00\x00\x00\x00\xf0?'
p3852
tp3853
bg1
(g2
(I0
tp3854
g4
tp3855
Rp3856
(I1
(I1
tp3857
g11
I00
S's\xe0\xa34\xbeL\xdf?'
p3858
tp3859
bg1
(g2
(I0
tp3860
g4
tp3861
Rp3862
(I1
(I1
tp3863
g11
I00
S'\xce\x13\x07E\xffF\xdd?'
p3864
tp3865
btp3866
a(g1
(g2
(I0
tp3867
g4
tp3868
Rp3869
(I1
(I1
tp3870
g11
I00
S'\x00\x00\x00\x00\x00\x00\xf0?'
p3871
tp3872
bg1
(g2
(I0
tp3873
g4
tp3874
Rp3875
(I1
(I1
tp3876
g11
I00
S'\xe8~\x00z\x99L\xdf?'
p3877
tp3878
bg1
(g2
(I0
tp3879
g4
tp3880
Rp3881
(I1
(I1
tp3882
g11
I00
S'+\xb7\x0b;\xddF\xdd?'
p3883
tp3884
btp3885
a(g1
(g2
(I0
tp3886
g4
tp3887
Rp3888
(I1
(I1
tp3889
g11
I00
S'\x00\x00\x00\x00\x00\x00\xf0?'
p3890
tp3891
bg1
(g2
(I0
tp3892
g4
tp3893
Rp3894
(I1
(I1
tp3895
g11
I00
S'&\x14\x07\xfe\x9dL\xdf?'
p3896
tp3897
bg1
(g2
(I0
tp3898
g4
tp3899
Rp3900
(I1
(I1
tp3901
g11
I00
S'n\xfffj\xe1F\xdd?'
p3902
tp3903
btp3904
a(g1
(g2
(I0
tp3905
g4
tp3906
Rp3907
(I1
(I1
tp3908
g11
I00
S'\x00\x00\x00\x00\x00\x00\xf0?'
p3909
tp3910
bg1
(g2
(I0
tp3911
g4
tp3912
Rp3913
(I1
(I1
tp3914
g11
I00
S'\xa1^z\xdb:N\xdf?'
p3915
tp3916
bg1
(g2
(I0
tp3917
g4
tp3918
Rp3919
(I1
(I1
tp3920
g11
I00
S'N\xda\xd1\x0b`H\xdd?'
p3921
tp3922
btp3923
a(g1
(g2
(I0
tp3924
g4
tp3925
Rp3926
(I1
(I1
tp3927
g11
I00
S'\x00\x00\x00\x00\x00\x00\xf0?'
p3928
tp3929
bg1
(g2
(I0
tp3930
g4
tp3931
Rp3932
(I1
(I1
tp3933
g11
I00
S'\x1dIE(\x9dL\xdf?'
p3934
tp3935
bg1
(g2
(I0
tp3936
g4
tp3937
Rp3938
(I1
(I1
tp3939
g11
I00
S'\x1d\x1cM\xa4\xe0F\xdd?'
p3940
tp3941
btp3942
a(g1
(g2
(I0
tp3943
g4
tp3944
Rp3945
(I1
(I1
tp3946
g11
I00
S'\x00\x00\x00\x00\x00\x00\xf0?'
p3947
tp3948
bg1
(g2
(I0
tp3949
g4
tp3950
Rp3951
(I1
(I1
tp3952
g11
I00
S'\x14\x9f\xe6\xc6\xe1L\xdf?'
p3953
tp3954
bg1
(g2
(I0
tp3955
g4
tp3956
Rp3957
(I1
(I1
tp3958
g11
I00
S'\xb0\x0e[< G\xdd?'
p3959
tp3960
btp3961
a(g1
(g2
(I0
tp3962
g4
tp3963
Rp3964
(I1
(I1
tp3965
g11
I00
S'\x00\x00\x00\x00\x00\x00\xf0?'
p3966
tp3967
bg1
(g2
(I0
tp3968
g4
tp3969
Rp3970
(I1
(I1
tp3971
g11
I00
S'\x0e\xdf\x88\xb0\x9dL\xdf?'
p3972
tp3973
bg1
(g2
(I0
tp3974
g4
tp3975
Rp3976
(I1
(I1
tp3977
g11
I00
S'\x11\xc5\x95"\xe1F\xdd?'
p3978
tp3979
btp3980
a(g1
(g2
(I0
tp3981
g4
tp3982
Rp3983
(I1
(I1
tp3984
g11
I00
S'\x00\x00\x00\x00\x00\x00\xf0?'
p3985
tp3986
bg1
(g2
(I0
tp3987
g4
tp3988
Rp3989
(I1
(I1
tp3990
g11
I00
S'"!\xc2\x16\x9cL\xdf?'
p3991
tp3992
bg1
(g2
(I0
tp3993
g4
tp3994
Rp3995
(I1
(I1
tp3996
g11
I00
S'\x82C\xd2\xa6\xdfF\xdd?'
p3997
tp3998
btp3999
a(g1
(g2
(I0
tp4000
g4
tp4001
Rp4002
(I1
(I1
tp4003
g11
I00
S'\x00\x00\x00\x00\x00\x00\xf0?'
p4004
tp4005
bg1
(g2
(I0
tp4006
g4
tp4007
Rp4008
(I1
(I1
tp4009
g11
I00
S'*"\x1c"\xfbL\xdf?'
p4010
tp4011
bg1
(g2
(I0
tp4012
g4
tp4013
Rp4014
(I1
(I1
tp4015
g11
I00
S'\xb0h*\xbc7G\xdd?'
p4016
tp4017
btp4018
a(g1
(g2
(I0
tp4019
g4
tp4020
Rp4021
(I1
(I1
tp4022
g11
I00
S'\x00\x00\x00\x00\x00\x00\xf0?'
p4023
tp4024
bg1
(g2
(I0
tp4025
g4
tp4026
Rp4027
(I1
(I1
tp4028
g11
I00
S'\x949\xd1\x94\xebL\xdf?'
p4029
tp4030
bg1
(g2
(I0
tp4031
g4
tp4032
Rp4033
(I1
(I1
tp4034
g11
I00
S'\x17\x92sR)G\xdd?'
p4035
tp4036
btp4037
a(g1
(g2
(I0
tp4038
g4
tp4039
Rp4040
(I1
(I1
tp4041
g11
I00
S'\x00\x00\x00\x00\x00\x00\xf0?'
p4042
tp4043
bg1
(g2
(I0
tp4044
g4
tp4045
Rp4046
(I1
(I1
tp4047
g11
I00
S'\xf9I\xec\x99\xd1L\xdf?'
p4048
tp4049
bg1
(g2
(I0
tp4050
g4
tp4051
Rp4052
(I1
(I1
tp4053
g11
I00
S'\xf7\x11\xa8>\x11G\xdd?'
p4054
tp4055
btp4056
a(g1
(g2
(I0
tp4057
g4
tp4058
Rp4059
(I1
(I1
tp4060
g11
I00
S'\x00\x00\x00\x00\x00\x00\xf0?'
p4061
tp4062
bg1
(g2
(I0
tp4063
g4
tp4064
Rp4065
(I1
(I1
tp4066
g11
I00
S'G\xc9\x86\xed\xd8L\xdf?'
p4067
tp4068
bg1
(g2
(I0
tp4069
g4
tp4070
Rp4071
(I1
(I1
tp4072
g11
I00
S'd\xb3\xe4\x08\x18G\xdd?'
p4073
tp4074
btp4075
a(g1
(g2
(I0
tp4076
g4
tp4077
Rp4078
(I1
(I1
tp4079
g11
I00
S'\x00\x00\x00\x00\x00\x00\xf0?'
p4080
tp4081
bg1
(g2
(I0
tp4082
g4
tp4083
Rp4084
(I1
(I1
tp4085
g11
I00
S'<\x01\x1bu\xd0L\xdf?'
p4086
tp4087
bg1
(g2
(I0
tp4088
g4
tp4089
Rp4090
(I1
(I1
tp4091
g11
I00
S'\x87\xddH/\x10G\xdd?'
p4092
tp4093
btp4094
a(g1
(g2
(I0
tp4095
g4
tp4096
Rp4097
(I1
(I1
tp4098
g11
I00
S'\x00\x00\x00\x00\x00\x00\xf0?'
p4099
tp4100
bg1
(g2
(I0
tp4101
g4
tp4102
Rp4103
(I1
(I1
tp4104
g11
I00
S'Q\x04\x8f\xbd\xd8L\xdf?'
p4105
tp4106
bg1
(g2
(I0
tp4107
g4
tp4108
Rp4109
(I1
(I1
tp4110
g11
I00
S'jHp\xdc\x17G\xdd?'
p4111
tp4112
btp4113
a(g1
(g2
(I0
tp4114
g4
tp4115
Rp4116
(I1
(I1
tp4117
g11
I00
S'\x00\x00\x00\x00\x00\x00\xf0?'
p4118
tp4119
bg1
(g2
(I0
tp4120
g4
tp4121
Rp4122
(I1
(I1
tp4123
g11
I00
S'V\xc5\xb1\xde*M\xdf?'
p4124
tp4125
bg1
(g2
(I0
tp4126
g4
tp4127
Rp4128
(I1
(I1
tp4129
g11
I00
S'\x8c\xfa\xc4\xf9cG\xdd?'
p4130
tp4131
btp4132
a(g1
(g2
(I0
tp4133
g4
tp4134
Rp4135
(I1
(I1
tp4136
g11
I00
S'\x00\x00\x00\x00\x00\x00\xf0?'
p4137
tp4138
bg1
(g2
(I0
tp4139
g4
tp4140
Rp4141
(I1
(I1
tp4142
g11
I00
S'D\x95\xcb+\xd1L\xdf?'
p4143
tp4144
bg1
(g2
(I0
tp4145
g4
tp4146
Rp4147
(I1
(I1
tp4148
g11
I00
S'a*\x98\xd8\x10G\xdd?'
p4149
tp4150
btp4151
a(g1
(g2
(I0
tp4152
g4
tp4153
Rp4154
(I1
(I1
tp4155
g11
I00
S'\x00\x00\x00\x00\x00\x00\xf0?'
p4156
tp4157
bg1
(g2
(I0
tp4158
g4
tp4159
Rp4160
(I1
(I1
tp4161
g11
I00
S'\xcb~\xb1\xf8\x82M\xdf?'
p4162
tp4163
bg1
(g2
(I0
tp4164
g4
tp4165
Rp4166
(I1
(I1
tp4167
g11
I00
S'\xb2\xb9\x17\xa0\xb5G\xdd?'
p4168
tp4169
btp4170
a(g1
(g2
(I0
tp4171
g4
tp4172
Rp4173
(I1
(I1
tp4174
g11
I00
S'\x00\x00\x00\x00\x00\x00\xf0?'
p4175
tp4176
bg1
(g2
(I0
tp4177
g4
tp4178
Rp4179
(I1
(I1
tp4180
g11
I00
S'\xb7p\xbc\xe8\x06M\xdf?'
p4181
tp4182
bg1
(g2
(I0
tp4183
g4
tp4184
Rp4185
(I1
(I1
tp4186
g11
I00
S'2\xec\x02\xa6BG\xdd?'
p4187
tp4188
btp4189
a(g1
(g2
(I0
tp4190
g4
tp4191
Rp4192
(I1
(I1
tp4193
g11
I00
S'\x00\x00\x00\x00\x00\x00\xf0?'
p4194
tp4195
bg1
(g2
(I0
tp4196
g4
tp4197
Rp4198
(I1
(I1
tp4199
g11
I00
S'PG\xdf\x07\xafL\xdf?'
p4200
tp4201
bg1
(g2
(I0
tp4202
g4
tp4203
Rp4204
(I1
(I1
tp4205
g11
I00
S'\xc2\xe8\xc74\xf1F\xdd?'
p4206
tp4207
btp4208
a(g1
(g2
(I0
tp4209
g4
tp4210
Rp4211
(I1
(I1
tp4212
g11
I00
S'\x00\x00\x00\x00\x00\x00\xf0?'
p4213
tp4214
bg1
(g2
(I0
tp4215
g4
tp4216
Rp4217
(I1
(I1
tp4218
g11
I00
S'\xd5\x19p\x17\xf6L\xdf?'
p4219
tp4220
bg1
(g2
(I0
tp4221
g4
tp4222
Rp4223
(I1
(I1
tp4224
g11
I00
S'\x9c\xb6\x04\x103G\xdd?'
p4225
tp4226
btp4227
a(g1
(g2
(I0
tp4228
g4
tp4229
Rp4230
(I1
(I1
tp4231
g11
I00
S'\x00\x00\x00\x00\x00\x00\xf0?'
p4232
tp4233
bg1
(g2
(I0
tp4234
g4
tp4235
Rp4236
(I1
(I1
tp4237
g11
I00
S'l\xf0\xee\x10\x00M\xdf?'
p4238
tp4239
bg1
(g2
(I0
tp4240
g4
tp4241
Rp4242
(I1
(I1
tp4243
g11
I00
S'\xf2\x14\x81N<G\xdd?'
p4244
tp4245
btp4246
a(g1
(g2
(I0
tp4247
g4
tp4248
Rp4249
(I1
(I1
tp4250
g11
I00
S'\x00\x00\x00\x00\x00\x00\xf0?'
p4251
tp4252
bg1
(g2
(I0
tp4253
g4
tp4254
Rp4255
(I1
(I1
tp4256
g11
I00
S'\xfa\xdf\xc4\xe3\x1eM\xdf?'
p4257
tp4258
bg1
(g2
(I0
tp4259
g4
tp4260
Rp4261
(I1
(I1
tp4262
g11
I00
S'\xfd\xf9r\xdfXG\xdd?'
p4263
tp4264
btp4265
a(g1
(g2
(I0
tp4266
g4
tp4267
Rp4268
(I1
(I1
tp4269
g11
I00
S'\x00\x00\x00\x00\x00\x00\xf0?'
p4270
tp4271
bg1
(g2
(I0
tp4272
g4
tp4273
Rp4274
(I1
(I1
tp4275
g11
I00
S'(\xc6\x1a\xae\xd4L\xdf?'
p4276
tp4277
bg1
(g2
(I0
tp4278
g4
tp4279
Rp4280
(I1
(I1
tp4281
g11
I00
S'\xbe\xd7\x1c\x19\x14G\xdd?'
p4282
tp4283
btp4284
a(g1
(g2
(I0
tp4285
g4
tp4286
Rp4287
(I1
(I1
tp4288
g11
I00
S'\x00\x00\x00\x00\x00\x00\xf0?'
p4289
tp4290
bg1
(g2
(I0
tp4291
g4
tp4292
Rp4293
(I1
(I1
tp4294
g11
I00
S'\xdcO\nw\xf3L\xdf?'
p4295
tp4296
bg1
(g2
(I0
tp4297
g4
tp4298
Rp4299
(I1
(I1
tp4300
g11
I00
S'\xa1~\xdd\xa00G\xdd?'
p4301
tp4302
btp4303
a(g1
(g2
(I0
tp4304
g4
tp4305
Rp4306
(I1
(I1
tp4307
g11
I00
S'\x00\x00\x00\x00\x00\x00\xf0?'
p4308
tp4309
bg1
(g2
(I0
tp4310
g4
tp4311
Rp4312
(I1
(I1
tp4313
g11
I00
S'\xcah\xfd\xbfpL\xdf?'
p4314
tp4315
bg1
(g2
(I0
tp4316
g4
tp4317
Rp4318
(I1
(I1
tp4319
g11
I00
S'\xef\xc9\xa9|\xb7F\xdd?'
p4320
tp4321
btp4322
a(g1
(g2
(I0
tp4323
g4
tp4324
Rp4325
(I1
(I1
tp4326
g11
I00
S'\x00\x00\x00\x00\x00\x00\xf0?'
p4327
tp4328
bg1
(g2
(I0
tp4329
g4
tp4330
Rp4331
(I1
(I1
tp4332
g11
I00
S'r\xbf,G\xf2L\xdf?'
p4333
tp4334
bg1
(g2
(I0
tp4335
g4
tp4336
Rp4337
(I1
(I1
tp4338
g11
I00
S'\x17\x04A\x87/G\xdd?'
p4339
tp4340
btp4341
a(g1
(g2
(I0
tp4342
g4
tp4343
Rp4344
(I1
(I1
tp4345
g11
I00
S'\x00\x00\x00\x00\x00\x00\xf0?'
p4346
tp4347
bg1
(g2
(I0
tp4348
g4
tp4349
Rp4350
(I1
(I1
tp4351
g11
I00
S'qO\xa6\xdc\xd1L\xdf?'
p4352
tp4353
bg1
(g2
(I0
tp4354
g4
tp4355
Rp4356
(I1
(I1
tp4357
g11
I00
S'9\x06\x7f|\x11G\xdd?'
p4358
tp4359
btp4360
a(g1
(g2
(I0
tp4361
g4
tp4362
Rp4363
(I1
(I1
tp4364
g11
I00
S'\x00\x00\x00\x00\x00\x00\xf0?'
p4365
tp4366
bg1
(g2
(I0
tp4367
g4
tp4368
Rp4369
(I1
(I1
tp4370
g11
I00
S'\xe1@)\xceXL\xdf?'
p4371
tp4372
bg1
(g2
(I0
tp4373
g4
tp4374
Rp4375
(I1
(I1
tp4376
g11
I00
S'9X\xcfK\xa1F\xdd?'
p4377
tp4378
btp4379
a(g1
(g2
(I0
tp4380
g4
tp4381
Rp4382
(I1
(I1
tp4383
g11
I00
S'\x00\x00\x00\x00\x00\x00\xf0?'
p4384
tp4385
bg1
(g2
(I0
tp4386
g4
tp4387
Rp4388
(I1
(I1
tp4389
g11
I00
S'\xdc\xba\x9e\xd9UL\xdf?'
p4390
tp4391
bg1
(g2
(I0
tp4392
g4
tp4393
Rp4394
(I1
(I1
tp4395
g11
I00
S'\x92\x85\xae\x8e\x9eF\xdd?'
p4396
tp4397
btp4398
a(g1
(g2
(I0
tp4399
g4
tp4400
Rp4401
(I1
(I1
tp4402
g11
I00
S'\x00\x00\x00\x00\x00\x00\xf0?'
p4403
tp4404
bg1
(g2
(I0
tp4405
g4
tp4406
Rp4407
(I1
(I1
tp4408
g11
I00
S'\x0cH\xa0\x1d\x8aL\xdf?'
p4409
tp4410
bg1
(g2
(I0
tp4411
g4
tp4412
Rp4413
(I1
(I1
tp4414
g11
I00
S'\x8fp\xaf\xfe\xceF\xdd?'
p4415
tp4416
btp4417
a(g1
(g2
(I0
tp4418
g4
tp4419
Rp4420
(I1
(I1
tp4421
g11
I00
S'\x00\x00\x00\x00\x00\x00\xf0?'
p4422
tp4423
bg1
(g2
(I0
tp4424
g4
tp4425
Rp4426
(I1
(I1
tp4427
g11
I00
S'AR\x06\x04\xa5L\xdf?'
p4428
tp4429
bg1
(g2
(I0
tp4430
g4
tp4431
Rp4432
(I1
(I1
tp4433
g11
I00
S'\x8e6\xb6\xec\xe7F\xdd?'
p4434
tp4435
btp4436
a(g1
(g2
(I0
tp4437
g4
tp4438
Rp4439
(I1
(I1
tp4440
g11
I00
S'\x00\x00\x00\x00\x00\x00\xf0?'
p4441
tp4442
bg1
(g2
(I0
tp4443
g4
tp4444
Rp4445
(I1
(I1
tp4446
g11
I00
S'N\x18LklL\xdf?'
p4447
tp4448
bg1
(g2
(I0
tp4449
g4
tp4450
Rp4451
(I1
(I1
tp4452
g11
I00
S'Z\xf0,y\xb3F\xdd?'
p4453
tp4454
btp4455
a(g1
(g2
(I0
tp4456
g4
tp4457
Rp4458
(I1
(I1
tp4459
g11
I00
S'\x00\x00\x00\x00\x00\x00\xf0?'
p4460
tp4461
bg1
(g2
(I0
tp4462
g4
tp4463
Rp4464
(I1
(I1
tp4465
g11
I00
S'H\xea\x95@\xc9L\xdf?'
p4466
tp4467
bg1
(g2
(I0
tp4468
g4
tp4469
Rp4470
(I1
(I1
tp4471
g11
I00
S'\xf6\r\xdb\x81\tG\xdd?'
p4472
tp4473
btp4474
a(g1
(g2
(I0
tp4475
g4
tp4476
Rp4477
(I1
(I1
tp4478
g11
I00
S'\x00\x00\x00\x00\x00\x00\xf0?'
p4479
tp4480
bg1
(g2
(I0
tp4481
g4
tp4482
Rp4483
(I1
(I1
tp4484
g11
I00
S'\xac\x0c\x84V\x8eL\xdf?'
p4485
tp4486
bg1
(g2
(I0
tp4487
g4
tp4488
Rp4489
(I1
(I1
tp4490
g11
I00
S'\x1bzh\xe8\xd2F\xdd?'
p4491
tp4492
btp4493
a(g1
(g2
(I0
tp4494
g4
tp4495
Rp4496
(I1
(I1
tp4497
g11
I00
S'\x00\x00\x00\x00\x00\x00\xf0?'
p4498
tp4499
bg1
(g2
(I0
tp4500
g4
tp4501
Rp4502
(I1
(I1
tp4503
g11
I00
S'\x81\xc3\xceh\xe2L\xdf?'
p4504
tp4505
bg1
(g2
(I0
tp4506
g4
tp4507
Rp4508
(I1
(I1
tp4509
g11
I00
S'\xe9\x9eg\xd2 G\xdd?'
p4510
tp4511
btp4512
a(g1
(g2
(I0
tp4513
g4
tp4514
Rp4515
(I1
(I1
tp4516
g11
I00
S'\x00\x00\x00\x00\x00\x00\xf0?'
p4517
tp4518
bg1
(g2
(I0
tp4519
g4
tp4520
Rp4521
(I1
(I1
tp4522
g11
I00
S'\xd3\x8bu]nL\xdf?'
p4523
tp4524
bg1
(g2
(I0
tp4525
g4
tp4526
Rp4527
(I1
(I1
tp4528
g11
I00
S'\xbf\xa1\xd9F\xb5F\xdd?'
p4529
tp4530
btp4531
a(g1
(g2
(I0
tp4532
g4
tp4533
Rp4534
(I1
(I1
tp4535
g11
I00
S'\x00\x00\x00\x00\x00\x00\xf0?'
p4536
tp4537
bg1
(g2
(I0
tp4538
g4
tp4539
Rp4540
(I1
(I1
tp4541
g11
I00
S'Y\xb7>f\xc7L\xdf?'
p4542
tp4543
bg1
(g2
(I0
tp4544
g4
tp4545
Rp4546
(I1
(I1
tp4547
g11
I00
S'tdA\xca\x07G\xdd?'
p4548
tp4549
btp4550
a(g1
(g2
(I0
tp4551
g4
tp4552
Rp4553
(I1
(I1
tp4554
g11
I00
S'\x00\x00\x00\x00\x00\x00\xf0?'
p4555
tp4556
bg1
(g2
(I0
tp4557
g4
tp4558
Rp4559
(I1
(I1
tp4560
g11
I00
S'm\xd7\xea\x13\x1bM\xdf?'
p4561
tp4562
bg1
(g2
(I0
tp4563
g4
tp4564
Rp4565
(I1
(I1
tp4566
g11
I00
S'\x04^\x10WUG\xdd?'
p4567
tp4568
btp4569
a(g1
(g2
(I0
tp4570
g4
tp4571
Rp4572
(I1
(I1
tp4573
g11
I00
S'\x00\x00\x00\x00\x00\x00\xf0?'
p4574
tp4575
bg1
(g2
(I0
tp4576
g4
tp4577
Rp4578
(I1
(I1
tp4579
g11
I00
S'D\x0c\x10$\xdaL\xdf?'
p4580
tp4581
bg1
(g2
(I0
tp4582
g4
tp4583
Rp4584
(I1
(I1
tp4585
g11
I00
S'*\xb5\xaf(\x19G\xdd?'
p4586
tp4587
btp4588
a(g1
(g2
(I0
tp4589
g4
tp4590
Rp4591
(I1
(I1
tp4592
g11
I00
S'\x00\x00\x00\x00\x00\x00\xf0?'
p4593
tp4594
bg1
(g2
(I0
tp4595
g4
tp4596
Rp4597
(I1
(I1
tp4598
g11
I00
S'\xa2*\x9c\xc5\xa4M\xdf?'
p4599
tp4600
bg1
(g2
(I0
tp4601
g4
tp4602
Rp4603
(I1
(I1
tp4604
g11
I00
S'1\x85]\xf3\xd4G\xdd?'
p4605
tp4606
btp4607
a(g1
(g2
(I0
tp4608
g4
tp4609
Rp4610
(I1
(I1
tp4611
g11
I00
S'\x00\x00\x00\x00\x00\x00\xf0?'
p4612
tp4613
bg1
(g2
(I0
tp4614
g4
tp4615
Rp4616
(I1
(I1
tp4617
g11
I00
S'\xe7z.\xfd1M\xdf?'
p4618
tp4619
bg1
(g2
(I0
tp4620
g4
tp4621
Rp4622
(I1
(I1
tp4623
g11
I00
S'\x0b\xd2\xc9\x92jG\xdd?'
p4624
tp4625
btp4626
a(g1
(g2
(I0
tp4627
g4
tp4628
Rp4629
(I1
(I1
tp4630
g11
I00
S'\x00\x00\x00\x00\x00\x00\xf0?'
p4631
tp4632
bg1
(g2
(I0
tp4633
g4
tp4634
Rp4635
(I1
(I1
tp4636
g11
I00
S'\x8f\x91\xf6\n\xa5L\xdf?'
p4637
tp4638
bg1
(g2
(I0
tp4639
g4
tp4640
Rp4641
(I1
(I1
tp4642
g11
I00
S'\xb5]$\xf3\xe7F\xdd?'
p4643
tp4644
btp4645
a(g1
(g2
(I0
tp4646
g4
tp4647
Rp4648
(I1
(I1
tp4649
g11
I00
S'\x00\x00\x00\x00\x00\x00\xf0?'
p4650
tp4651
bg1
(g2
(I0
tp4652
g4
tp4653
Rp4654
(I1
(I1
tp4655
g11
I00
S'd\x03w\xa6\x1fM\xdf?'
p4656
tp4657
bg1
(g2
(I0
tp4658
g4
tp4659
Rp4660
(I1
(I1
tp4661
g11
I00
S'|\xee\xe2\x93YG\xdd?'
p4662
tp4663
btp4664
a(g1
(g2
(I0
tp4665
g4
tp4666
Rp4667
(I1
(I1
tp4668
g11
I00
S'\x00\x00\x00\x00\x00\x00\xf0?'
p4669
tp4670
bg1
(g2
(I0
tp4671
g4
tp4672
Rp4673
(I1
(I1
tp4674
g11
I00
S't6K\x14\xf3L\xdf?'
p4675
tp4676
bg1
(g2
(I0
tp4677
g4
tp4678
Rp4679
(I1
(I1
tp4680
g11
I00
S'\x90\xc3YE0G\xdd?'
p4681
tp4682
btp4683
a(g1
(g2
(I0
tp4684
g4
tp4685
Rp4686
(I1
(I1
tp4687
g11
I00
S'\x00\x00\x00\x00\x00\x00\xf0?'
p4688
tp4689
bg1
(g2
(I0
tp4690
g4
tp4691
Rp4692
(I1
(I1
tp4693
g11
I00
S'\xca&$>\xfcL\xdf?'
p4694
tp4695
bg1
(g2
(I0
tp4696
g4
tp4697
Rp4698
(I1
(I1
tp4699
g11
I00
S'6=e\xc38G\xdd?'
p4700
tp4701
btp4702
a(g1
(g2
(I0
tp4703
g4
tp4704
Rp4705
(I1
(I1
tp4706
g11
I00
S'\x00\x00\x00\x00\x00\x00\xf0?'
p4707
tp4708
bg1
(g2
(I0
tp4709
g4
tp4710
Rp4711
(I1
(I1
tp4712
g11
I00
S'\x88\x8c\xf9\x13\x9fL\xdf?'
p4713
tp4714
bg1
(g2
(I0
tp4715
g4
tp4716
Rp4717
(I1
(I1
tp4718
g11
I00
S'B\x03\xfek\xe2F\xdd?'
p4719
tp4720
btp4721
a(g1
(g2
(I0
tp4722
g4
tp4723
Rp4724
(I1
(I1
tp4725
g11
I00
S'\x00\x00\x00\x00\x00\x00\xf0?'
p4726
tp4727
bg1
(g2
(I0
tp4728
g4
tp4729
Rp4730
(I1
(I1
tp4731
g11
I00
S'\xfc\x88K$\xf1L\xdf?'
p4732
tp4733
bg1
(g2
(I0
tp4734
g4
tp4735
Rp4736
(I1
(I1
tp4737
g11
I00
S'Um\xady.G\xdd?'
p4738
tp4739
btp4740
a(g1
(g2
(I0
tp4741
g4
tp4742
Rp4743
(I1
(I1
tp4744
g11
I00
S'\x00\x00\x00\x00\x00\x00\xf0?'
p4745
tp4746
bg1
(g2
(I0
tp4747
g4
tp4748
Rp4749
(I1
(I1
tp4750
g11
I00
S'q\x7f\xc2\x8f\x9eL\xdf?'
p4751
tp4752
bg1
(g2
(I0
tp4753
g4
tp4754
Rp4755
(I1
(I1
tp4756
g11
I00
S'\xb5\xf7u\xf1\xe1F\xdd?'
p4757
tp4758
btp4759
a(g1
(g2
(I0
tp4760
g4
tp4761
Rp4762
(I1
(I1
tp4763
g11
I00
S'\x00\x00\x00\x00\x00\x00\xf0?'
p4764
tp4765
bg1
(g2
(I0
tp4766
g4
tp4767
Rp4768
(I1
(I1
tp4769
g11
I00
S'\xc3W\x16\x17qL\xdf?'
p4770
tp4771
bg1
(g2
(I0
tp4772
g4
tp4773
Rp4774
(I1
(I1
tp4775
g11
I00
S'z\x9ca\xcd\xb7F\xdd?'
p4776
tp4777
btp4778
a(g1
(g2
(I0
tp4779
g4
tp4780
Rp4781
(I1
(I1
tp4782
g11
I00
S'\x00\x00\x00\x00\x00\x00\xf0?'
p4783
tp4784
bg1
(g2
(I0
tp4785
g4
tp4786
Rp4787
(I1
(I1
tp4788
g11
I00
S'|1~\x0e\xc5L\xdf?'
p4789
tp4790
bg1
(g2
(I0
tp4791
g4
tp4792
Rp4793
(I1
(I1
tp4794
g11
I00
S'^\xcbm\x9e\x05G\xdd?'
p4795
tp4796
btp4797
a(g1
(g2
(I0
tp4798
g4
tp4799
Rp4800
(I1
(I1
tp4801
g11
I00
S'\x00\x00\x00\x00\x00\x00\xf0?'
p4802
tp4803
bg1
(g2
(I0
tp4804
g4
tp4805
Rp4806
(I1
(I1
tp4807
g11
I00
S'\x83Z\xdc\x12\xd4L\xdf?'
p4808
tp4809
bg1
(g2
(I0
tp4810
g4
tp4811
Rp4812
(I1
(I1
tp4813
g11
I00
S'\xf1\x1a=\x89\x13G\xdd?'
p4814
tp4815
btp4816
a(g1
(g2
(I0
tp4817
g4
tp4818
Rp4819
(I1
(I1
tp4820
g11
I00
S'\x00\x00\x00\x00\x00\x00\xf0?'
p4821
tp4822
bg1
(g2
(I0
tp4823
g4
tp4824
Rp4825
(I1
(I1
tp4826
g11
I00
S'\xd1\xd4d\xc8ZL\xdf?'
p4827
tp4828
bg1
(g2
(I0
tp4829
g4
tp4830
Rp4831
(I1
(I1
tp4832
g11
I00
S'+\xb4\xf6 \xa3F\xdd?'
p4833
tp4834
btp4835
a(g1
(g2
(I0
tp4836
g4
tp4837
Rp4838
(I1
(I1
tp4839
g11
I00
S'\x00\x00\x00\x00\x00\x00\xf0?'
p4840
tp4841
bg1
(g2
(I0
tp4842
g4
tp4843
Rp4844
(I1
(I1
tp4845
g11
I00
S'>\x1f\xdcC\xb9M\xdf?'
p4846
tp4847
bg1
(g2
(I0
tp4848
g4
tp4849
Rp4850
(I1
(I1
tp4851
g11
I00
S'\xe3\xeaq\xf1\xe7G\xdd?'
p4852
tp4853
btp4854
a(g1
(g2
(I0
tp4855
g4
tp4856
Rp4857
(I1
(I1
tp4858
g11
I00
S'\x00\x00\x00\x00\x00\x00\xf0?'
p4859
tp4860
bg1
(g2
(I0
tp4861
g4
tp4862
Rp4863
(I1
(I1
tp4864
g11
I00
S'S\xd3\xe1SfL\xdf?'
p4865
tp4866
bg1
(g2
(I0
tp4867
g4
tp4868
Rp4869
(I1
(I1
tp4870
g11
I00
S'\xf8z\xfa\xd3\xadF\xdd?'
p4871
tp4872
btp4873
a(g1
(g2
(I0
tp4874
g4
tp4875
Rp4876
(I1
(I1
tp4877
g11
I00
S'\x00\x00\x00\x00\x00\x00\xf0?'
p4878
tp4879
bg1
(g2
(I0
tp4880
g4
tp4881
Rp4882
(I1
(I1
tp4883
g11
I00
S'\x8bl:o\x97L\xdf?'
p4884
tp4885
bg1
(g2
(I0
tp4886
g4
tp4887
Rp4888
(I1
(I1
tp4889
g11
I00
S']\x97\x8fV\xdbF\xdd?'
p4890
tp4891
btp4892
a(g1
(g2
(I0
tp4893
g4
tp4894
Rp4895
(I1
(I1
tp4896
g11
I00
S'\x00\x00\x00\x00\x00\x00\xf0?'
p4897
tp4898
bg1
(g2
(I0
tp4899
g4
tp4900
Rp4901
(I1
(I1
tp4902
g11
I00
S'\xa0\x06\xbe\xfd.M\xdf?'
p4903
tp4904
bg1
(g2
(I0
tp4905
g4
tp4906
Rp4907
(I1
(I1
tp4908
g11
I00
S'\xfc>\x8d\xcbgG\xdd?'
p4909
tp4910
btp4911
a(g1
(g2
(I0
tp4912
g4
tp4913
Rp4914
(I1
(I1
tp4915
g11
I00
S'\x00\x00\x00\x00\x00\x00\xf0?'
p4916
tp4917
bg1
(g2
(I0
tp4918
g4
tp4919
Rp4920
(I1
(I1
tp4921
g11
I00
S'\x01\x86}\xfe\xfaL\xdf?'
p4922
tp4923
bg1
(g2
(I0
tp4924
g4
tp4925
Rp4926
(I1
(I1
tp4927
g11
I00
S"\xb7\x9d'\x9b7G\xdd?"
p4928
tp4929
btp4930
a(g1
(g2
(I0
tp4931
g4
tp4932
Rp4933
(I1
(I1
tp4934
g11
I00
S'\x00\x00\x00\x00\x00\x00\xf0?'
p4935
tp4936
bg1
(g2
(I0
tp4937
g4
tp4938
Rp4939
(I1
(I1
tp4940
g11
I00
S'\xc8\xea\x7f==M\xdf?'
p4941
tp4942
bg1
(g2
(I0
tp4943
g4
tp4944
Rp4945
(I1
(I1
tp4946
g11
I00
S'\x0b\x97+\x00uG\xdd?'
p4947
tp4948
btp4949
a(g1
(g2
(I0
tp4950
g4
tp4951
Rp4952
(I1
(I1
tp4953
g11
I00
S'\x00\x00\x00\x00\x00\x00\xf0?'
p4954
tp4955
bg1
(g2
(I0
tp4956
g4
tp4957
Rp4958
(I1
(I1
tp4959
g11
I00
S'\x12\xed\x7f\x9dHM\xdf?'
p4960
tp4961
bg1
(g2
(I0
tp4962
g4
tp4963
Rp4964
(I1
(I1
tp4965
g11
I00
S'\xc3d\xea\x8a\x7fG\xdd?'
p4966
tp4967
btp4968
a(g1
(g2
(I0
tp4969
g4
tp4970
Rp4971
(I1
(I1
tp4972
g11
I00
S'\x00\x00\x00\x00\x00\x00\xf0?'
p4973
tp4974
bg1
(g2
(I0
tp4975
g4
tp4976
Rp4977
(I1
(I1
tp4978
g11
I00
S'V\xdaB\x82\xe3L\xdf?'
p4979
tp4980
bg1
(g2
(I0
tp4981
g4
tp4982
Rp4983
(I1
(I1
tp4984
g11
I00
S'0\xc3>\xd7!G\xdd?'
p4985
tp4986
btp4987
a(g1
(g2
(I0
tp4988
g4
tp4989
Rp4990
(I1
(I1
tp4991
g11
I00
S'\x00\x00\x00\x00\x00\x00\xf0?'
p4992
tp4993
bg1
(g2
(I0
tp4994
g4
tp4995
Rp4996
(I1
(I1
tp4997
g11
I00
S'\xe7S\xe1\xad\xebL\xdf?'
p4998
tp4999
bg1
(g2
(I0
tp5000
g4
tp5001
Rp5002
(I1
(I1
tp5003
g11
I00
S'+\xc6\xadi)G\xdd?'
p5004
tp5005
btp5006
a(g1
(g2
(I0
tp5007
g4
tp5008
Rp5009
(I1
(I1
tp5010
g11
I00
S'\x00\x00\x00\x00\x00\x00\xf0?'
p5011
tp5012
bg1
(g2
(I0
tp5013
g4
tp5014
Rp5015
(I1
(I1
tp5016
g11
I00
S'\x8d5\x85$\x1dM\xdf?'
p5017
tp5018
bg1
(g2
(I0
tp5019
g4
tp5020
Rp5021
(I1
(I1
tp5022
g11
I00
S'"e\xf4@WG\xdd?'
p5023
tp5024
btp5025
a(g1
(g2
(I0
tp5026
g4
tp5027
Rp5028
(I1
(I1
tp5029
g11
I00
S'\x00\x00\x00\x00\x00\x00\xf0?'
p5030
tp5031
bg1
(g2
(I0
tp5032
g4
tp5033
Rp5034
(I1
(I1
tp5035
g11
I00
S'\xfbX\x11\xbd\xeeL\xdf?'
p5036
tp5037
bg1
(g2
(I0
tp5038
g4
tp5039
Rp5040
(I1
(I1
tp5041
g11
I00
S'\xfe\xfa\x81?,G\xdd?'
p5042
tp5043
btp5044
a(g1
(g2
(I0
tp5045
g4
tp5046
Rp5047
(I1
(I1
tp5048
g11
I00
S'\x00\x00\x00\x00\x00\x00\xf0?'
p5049
tp5050
bg1
(g2
(I0
tp5051
g4
tp5052
Rp5053
(I1
(I1
tp5054
g11
I00
S'\x0f\xa0wo\xf3L\xdf?'
p5055
tp5056
bg1
(g2
(I0
tp5057
g4
tp5058
Rp5059
(I1
(I1
tp5060
g11
I00
S'\xb1\xca\xd8\x990G\xdd?'
p5061
tp5062
btp5063
a(g1
(g2
(I0
tp5064
g4
tp5065
Rp5066
(I1
(I1
tp5067
g11
I00
S'\x00\x00\x00\x00\x00\x00\xf0?'
p5068
tp5069
bg1
(g2
(I0
tp5070
g4
tp5071
Rp5072
(I1
(I1
tp5073
g11
I00
S'n)\x8b\xa0\x9bL\xdf?'
p5074
tp5075
bg1
(g2
(I0
tp5076
g4
tp5077
Rp5078
(I1
(I1
tp5079
g11
I00
S'\xa7\xcdC9\xdfF\xdd?'
p5080
tp5081
btp5082
a(g1
(g2
(I0
tp5083
g4
tp5084
Rp5085
(I1
(I1
tp5086
g11
I00
S'\x00\x00\x00\x00\x00\x00\xf0?'
p5087
tp5088
bg1
(g2
(I0
tp5089
g4
tp5090
Rp5091
(I1
(I1
tp5092
g11
I00
S'+,\tM\xccL\xdf?'
p5093
tp5094
bg1
(g2
(I0
tp5095
g4
tp5096
Rp5097
(I1
(I1
tp5098
g11
I00
S'xx%U\x0cG\xdd?'
p5099
tp5100
btp5101
a(g1
(g2
(I0
tp5102
g4
tp5103
Rp5104
(I1
(I1
tp5105
g11
I00
S'\x00\x00\x00\x00\x00\x00\xf0?'
p5106
tp5107
bg1
(g2
(I0
tp5108
g4
tp5109
Rp5110
(I1
(I1
tp5111
g11
I00
S'\xf7\x98b\xdc\xa4L\xdf?'
p5112
tp5113
bg1
(g2
(I0
tp5114
g4
tp5115
Rp5116
(I1
(I1
tp5117
g11
I00
S'F\xb8\xf9\xc7\xe7F\xdd?'
p5118
tp5119
btp5120
a(g1
(g2
(I0
tp5121
g4
tp5122
Rp5123
(I1
(I1
tp5124
g11
I00
S'\x00\x00\x00\x00\x00\x00\xf0?'
p5125
tp5126
bg1
(g2
(I0
tp5127
g4
tp5128
Rp5129
(I1
(I1
tp5130
g11
I00
S'\x90\xc9R\xef\xe4L\xdf?'
p5131
tp5132
bg1
(g2
(I0
tp5133
g4
tp5134
Rp5135
(I1
(I1
tp5136
g11
I00
S'\x80.\x92)#G\xdd?'
p5137
tp5138
btp5139
a(g1
(g2
(I0
tp5140
g4
tp5141
Rp5142
(I1
(I1
tp5143
g11
I00
S'\x00\x00\x00\x00\x00\x00\xf0?'
p5144
tp5145
bg1
(g2
(I0
tp5146
g4
tp5147
Rp5148
(I1
(I1
tp5149
g11
I00
S'\xe8\xea0i>M\xdf?'
p5150
tp5151
bg1
(g2
(I0
tp5152
g4
tp5153
Rp5154
(I1
(I1
tp5155
g11
I00
S'X\x0e\xea\x15vG\xdd?'
p5156
tp5157
btp5158
a(g1
(g2
(I0
tp5159
g4
tp5160
Rp5161
(I1
(I1
tp5162
g11
I00
S'\x00\x00\x00\x00\x00\x00\xf0?'
p5163
tp5164
bg1
(g2
(I0
tp5165
g4
tp5166
Rp5167
(I1
(I1
tp5168
g11
I00
S'\xab\x06y\xd2\x97L\xdf?'
p5169
tp5170
bg1
(g2
(I0
tp5171
g4
tp5172
Rp5173
(I1
(I1
tp5174
g11
I00
S'U^\x89\xb2\xdbF\xdd?'
p5175
tp5176
btp5177
a(g1
(g2
(I0
tp5178
g4
tp5179
Rp5180
(I1
(I1
tp5181
g11
I00
S'\x00\x00\x00\x00\x00\x00\xf0?'
p5182
tp5183
bg1
(g2
(I0
tp5184
g4
tp5185
Rp5186
(I1
(I1
tp5187
g11
I00
S'v\x04\x11(\xf2L\xdf?'
p5188
tp5189
bg1
(g2
(I0
tp5190
g4
tp5191
Rp5192
(I1
(I1
tp5193
g11
I00
S'\xd8\x86lj/G\xdd?'
p5194
tp5195
btp5196
a(g1
(g2
(I0
tp5197
g4
tp5198
Rp5199
(I1
(I1
tp5200
g11
I00
S'\x00\x00\x00\x00\x00\x00\xf0?'
p5201
tp5202
bg1
(g2
(I0
tp5203
g4
tp5204
Rp5205
(I1
(I1
tp5206
g11
I00
S'\xa1r>\x99;M\xdf?'
p5207
tp5208
bg1
(g2
(I0
tp5209
g4
tp5210
Rp5211
(I1
(I1
tp5212
g11
I00
S'\x80\xf8\xb0zsG\xdd?'
p5213
tp5214
btp5215
a(g1
(g2
(I0
tp5216
g4
tp5217
Rp5218
(I1
(I1
tp5219
g11
I00
S'\x00\x00\x00\x00\x00\x00\xf0?'
p5220
tp5221
bg1
(g2
(I0
tp5222
g4
tp5223
Rp5224
(I1
(I1
tp5225
g11
I00
S'\x94\x00$\x81GN\xdf?'
p5226
tp5227
bg1
(g2
(I0
tp5228
g4
tp5229
Rp5230
(I1
(I1
tp5231
g11
I00
S'\xea\x95k\xc4kH\xdd?'
p5232
tp5233
btp5234
a(g1
(g2
(I0
tp5235
g4
tp5236
Rp5237
(I1
(I1
tp5238
g11
I00
S'\x00\x00\x00\x00\x00\x00\xf0?'
p5239
tp5240
bg1
(g2
(I0
tp5241
g4
tp5242
Rp5243
(I1
(I1
tp5244
g11
I00
S'4\x9e\xd0t\xfcM\xdf?'
p5245
tp5246
bg1
(g2
(I0
tp5247
g4
tp5248
Rp5249
(I1
(I1
tp5250
g11
I00
S'\x92\xac\xda6&H\xdd?'
p5251
tp5252
btp5253
a(g1
(g2
(I0
tp5254
g4
tp5255
Rp5256
(I1
(I1
tp5257
g11
I00
S'\x00\x00\x00\x00\x00\x00\xf0?'
p5258
tp5259
bg1
(g2
(I0
tp5260
g4
tp5261
Rp5262
(I1
(I1
tp5263
g11
I00
S'\xa1\xe9dV]L\xdf?'
p5264
tp5265
bg1
(g2
(I0
tp5266
g4
tp5267
Rp5268
(I1
(I1
tp5269
g11
I00
S'\xfa\xd6\x0f\x7f\xa5F\xdd?'
p5270
tp5271
btp5272
a(g1
(g2
(I0
tp5273
g4
tp5274
Rp5275
(I1
(I1
tp5276
g11
I00
S'\x00\x00\x00\x00\x00\x00\xf0?'
p5277
tp5278
bg1
(g2
(I0
tp5279
g4
tp5280
Rp5281
(I1
(I1
tp5282
g11
I00
S'\x02X1\x19\x93L\xdf?'
p5283
tp5284
bg1
(g2
(I0
tp5285
g4
tp5286
Rp5287
(I1
(I1
tp5288
g11
I00
S'f\x98\xd3Q\xd7F\xdd?'
p5289
tp5290
btp5291
a(g1
(g2
(I0
tp5292
g4
tp5293
Rp5294
(I1
(I1
tp5295
g11
I00
S'\x00\x00\x00\x00\x00\x00\xf0?'
p5296
tp5297
bg1
(g2
(I0
tp5298
g4
tp5299
Rp5300
(I1
(I1
tp5301
g11
I00
S'\x042\x93O\xe3L\xdf?'
p5302
tp5303
bg1
(g2
(I0
tp5304
g4
tp5305
Rp5306
(I1
(I1
tp5307
g11
I00
S'MjE\xa8!G\xdd?'
p5308
tp5309
btp5310
a(g1
(g2
(I0
tp5311
g4
tp5312
Rp5313
(I1
(I1
tp5314
g11
I00
S'\x00\x00\x00\x00\x00\x00\xf0?'
p5315
tp5316
bg1
(g2
(I0
tp5317
g4
tp5318
Rp5319
(I1
(I1
tp5320
g11
I00
S':\x9b\xec@\xb1L\xdf?'
p5321
tp5322
bg1
(g2
(I0
tp5323
g4
tp5324
Rp5325
(I1
(I1
tp5326
g11
I00
S"W\xc0'D\xf3F\xdd?"
p5327
tp5328
btp5329
a(g1
(g2
(I0
tp5330
g4
tp5331
Rp5332
(I1
(I1
tp5333
g11
I00
S'\x00\x00\x00\x00\x00\x00\xf0?'
p5334
tp5335
bg1
(g2
(I0
tp5336
g4
tp5337
Rp5338
(I1
(I1
tp5339
g11
I00
S'X\xe8\x16e\xa5L\xdf?'
p5340
tp5341
bg1
(g2
(I0
tp5342
g4
tp5343
Rp5344
(I1
(I1
tp5345
g11
I00
S'\x9f\xdc\xaaF\xe8F\xdd?'
p5346
tp5347
btp5348
a(g1
(g2
(I0
tp5349
g4
tp5350
Rp5351
(I1
(I1
tp5352
g11
I00
S'\x00\x00\x00\x00\x00\x00\xf0?'
p5353
tp5354
bg1
(g2
(I0
tp5355
g4
tp5356
Rp5357
(I1
(I1
tp5358
g11
I00
S'`n\xc4\x97\xeaL\xdf?'
p5359
tp5360
bg1
(g2
(I0
tp5361
g4
tp5362
Rp5363
(I1
(I1
tp5364
g11
I00
S'\xb1)\xefg(G\xdd?'
p5365
tp5366
btp5367
a(g1
(g2
(I0
tp5368
g4
tp5369
Rp5370
(I1
(I1
tp5371
g11
I00
S'\x00\x00\x00\x00\x00\x00\xf0?'
p5372
tp5373
bg1
(g2
(I0
tp5374
g4
tp5375
Rp5376
(I1
(I1
tp5377
g11
I00
S'e\x1d#{\x96L\xdf?'
p5378
tp5379
bg1
(g2
(I0
tp5380
g4
tp5381
Rp5382
(I1
(I1
tp5383
g11
I00
S'U\xf7Xt\xdaF\xdd?'
p5384
tp5385
btp5386
a(g1
(g2
(I0
tp5387
g4
tp5388
Rp5389
(I1
(I1
tp5390
g11
I00
S'\x00\x00\x00\x00\x00\x00\xf0?'
p5391
tp5392
bg1
(g2
(I0
tp5393
g4
tp5394
Rp5395
(I1
(I1
tp5396
g11
I00
S'\xfbp>\xe8\x85M\xdf?'
p5397
tp5398
bg1
(g2
(I0
tp5399
g4
tp5400
Rp5401
(I1
(I1
tp5402
g11
I00
S'9~\x9bX\xb8G\xdd?'
p5403
tp5404
btp5405
a(g1
(g2
(I0
tp5406
g4
tp5407
Rp5408
(I1
(I1
tp5409
g11
I00
S'\x00\x00\x00\x00\x00\x00\xf0?'
p5410
tp5411
bg1
(g2
(I0
tp5412
g4
tp5413
Rp5414
(I1
(I1
tp5415
g11
I00
S's\x98\xd5u\x95L\xdf?'
p5416
tp5417
bg1
(g2
(I0
tp5418
g4
tp5419
Rp5420
(I1
(I1
tp5421
g11
I00
S'f\xda.\x82\xd9F\xdd?'
p5422
tp5423
btp5424
a(g1
(g2
(I0
tp5425
g4
tp5426
Rp5427
(I1
(I1
tp5428
g11
I00
S'\x00\x00\x00\x00\x00\x00\xf0?'
p5429
tp5430
bg1
(g2
(I0
tp5431
g4
tp5432
Rp5433
(I1
(I1
tp5434
g11
I00
S'\xb1\x8b\xa4\x07\xd4L\xdf?'
p5435
tp5436
bg1
(g2
(I0
tp5437
g4
tp5438
Rp5439
(I1
(I1
tp5440
g11
I00
S'\xf9\x9f\xd7~\x13G\xdd?'
p5441
tp5442
btp5443
a(g1
(g2
(I0
tp5444
g4
tp5445
Rp5446
(I1
(I1
tp5447
g11
I00
S'\x00\x00\x00\x00\x00\x00\xf0?'
p5448
tp5449
bg1
(g2
(I0
tp5450
g4
tp5451
Rp5452
(I1
(I1
tp5453
g11
I00
S'F\xe5\xef\x94\x85L\xdf?'
p5454
tp5455
bg1
(g2
(I0
tp5456
g4
tp5457
Rp5458
(I1
(I1
tp5459
g11
I00
S'K\x17\x02\xcb\xcaF\xdd?'
p5460
tp5461
btp5462
a(g1
(g2
(I0
tp5463
g4
tp5464
Rp5465
(I1
(I1
tp5466
g11
I00
S'\x00\x00\x00\x00\x00\x00\xf0?'
p5467
tp5468
bg1
(g2
(I0
tp5469
g4
tp5470
Rp5471
(I1
(I1
tp5472
g11
I00
S'\xa6\x0e\t\xba\x93L\xdf?'
p5473
tp5474
bg1
(g2
(I0
tp5475
g4
tp5476
Rp5477
(I1
(I1
tp5478
g11
I00
S'k\x84\xe3\xe6\xd7F\xdd?'
p5479
tp5480
btp5481
a(g1
(g2
(I0
tp5482
g4
tp5483
Rp5484
(I1
(I1
tp5485
g11
I00
S'\x00\x00\x00\x00\x00\x00\xf0?'
p5486
tp5487
bg1
(g2
(I0
tp5488
g4
tp5489
Rp5490
(I1
(I1
tp5491
g11
I00
S'K\x0f\x95\xf0\xf4L\xdf?'
p5492
tp5493
bg1
(g2
(I0
tp5494
g4
tp5495
Rp5496
(I1
(I1
tp5497
g11
I00
S'\x08\xd3\xc1\xfe1G\xdd?'
p5498
tp5499
btp5500
a(g1
(g2
(I0
tp5501
g4
tp5502
Rp5503
(I1
(I1
tp5504
g11
I00
S'\x00\x00\x00\x00\x00\x00\xf0?'
p5505
tp5506
bg1
(g2
(I0
tp5507
g4
tp5508
Rp5509
(I1
(I1
tp5510
g11
I00
S'pz1\xb0\xabL\xdf?'
p5511
tp5512
bg1
(g2
(I0
tp5513
g4
tp5514
Rp5515
(I1
(I1
tp5516
g11
I00
S'\x02\xc2\xc5\x1b\xeeF\xdd?'
p5517
tp5518
btp5519
a(g1
(g2
(I0
tp5520
g4
tp5521
Rp5522
(I1
(I1
tp5523
g11
I00
S'\x00\x00\x00\x00\x00\x00\xf0?'
p5524
tp5525
bg1
(g2
(I0
tp5526
g4
tp5527
Rp5528
(I1
(I1
tp5529
g11
I00
S'\xb7\xee\xf2\xbc\xa7L\xdf?'
p5530
tp5531
bg1
(g2
(I0
tp5532
g4
tp5533
Rp5534
(I1
(I1
tp5535
g11
I00
S'D\xb3\x97r\xeaF\xdd?'
p5536
tp5537
btp5538
a(g1
(g2
(I0
tp5539
g4
tp5540
Rp5541
(I1
(I1
tp5542
g11
I00
S'\x00\x00\x00\x00\x00\x00\xf0?'
p5543
tp5544
bg1
(g2
(I0
tp5545
g4
tp5546
Rp5547
(I1
(I1
tp5548
g11
I00
S'M\xb2m|\xb0L\xdf?'
p5549
tp5550
bg1
(g2
(I0
tp5551
g4
tp5552
Rp5553
(I1
(I1
tp5554
g11
I00
S'>\r\r\x8e\xf2F\xdd?'
p5555
tp5556
btp5557
a(g1
(g2
(I0
tp5558
g4
tp5559
Rp5560
(I1
(I1
tp5561
g11
I00
S'\x00\x00\x00\x00\x00\x00\xf0?'
p5562
tp5563
bg1
(g2
(I0
tp5564
g4
tp5565
Rp5566
(I1
(I1
tp5567
g11
I00
S'aI\xde=\x9dL\xdf?'
p5568
tp5569
bg1
(g2
(I0
tp5570
g4
tp5571
Rp5572
(I1
(I1
tp5573
g11
I00
S'\x96(Q\xb8\xe0F\xdd?'
p5574
tp5575
btp5576
a(g1
(g2
(I0
tp5577
g4
tp5578
Rp5579
(I1
(I1
tp5580
g11
I00
S'\x00\x00\x00\x00\x00\x00\xf0?'
p5581
tp5582
bg1
(g2
(I0
tp5583
g4
tp5584
Rp5585
(I1
(I1
tp5586
g11
I00
S'k}\x0c\xeb\xf3L\xdf?'
p5587
tp5588
bg1
(g2
(I0
tp5589
g4
tp5590
Rp5591
(I1
(I1
tp5592
g11
I00
S'\x06\xaa`\x0c1G\xdd?'
p5593
tp5594
btp5595
a(g1
(g2
(I0
tp5596
g4
tp5597
Rp5598
(I1
(I1
tp5599
g11
I00
S'\x00\x00\x00\x00\x00\x00\xf0?'
p5600
tp5601
bg1
(g2
(I0
tp5602
g4
tp5603
Rp5604
(I1
(I1
tp5605
g11
I00
S'\xb6\xa7`i\xe6L\xdf?'
p5606
tp5607
bg1
(g2
(I0
tp5608
g4
tp5609
Rp5610
(I1
(I1
tp5611
g11
I00
S'\xf7\xf4\xef\x87$G\xdd?'
p5612
tp5613
btp5614
a(g1
(g2
(I0
tp5615
g4
tp5616
Rp5617
(I1
(I1
tp5618
g11
I00
S'\x00\x00\x00\x00\x00\x00\xf0?'
p5619
tp5620
bg1
(g2
(I0
tp5621
g4
tp5622
Rp5623
(I1
(I1
tp5624
g11
I00
S'\xe0\xb9\x8a\xaf\xe9L\xdf?'
p5625
tp5626
bg1
(g2
(I0
tp5627
g4
tp5628
Rp5629
(I1
(I1
tp5630
g11
I00
S"&i\xb7\x90'G\xdd?"
p5631
tp5632
btp5633
a(g1
(g2
(I0
tp5634
g4
tp5635
Rp5636
(I1
(I1
tp5637
g11
I00
S'\x00\x00\x00\x00\x00\x00\xf0?'
p5638
tp5639
bg1
(g2
(I0
tp5640
g4
tp5641
Rp5642
(I1
(I1
tp5643
g11
I00
S'\xbd@b\x1a\x93L\xdf?'
p5644
tp5645
bg1
(g2
(I0
tp5646
g4
tp5647
Rp5648
(I1
(I1
tp5649
g11
I00
S'\x1a,\xeeR\xd7F\xdd?'
p5650
tp5651
btp5652
a(g1
(g2
(I0
tp5653
g4
tp5654
Rp5655
(I1
(I1
tp5656
g11
I00
S'\x00\x00\x00\x00\x00\x00\xf0?'
p5657
tp5658
bg1
(g2
(I0
tp5659
g4
tp5660
Rp5661
(I1
(I1
tp5662
g11
I00
S'\x01\xac\xb5g\x1fP\xdf?'
p5663
tp5664
bg1
(g2
(I0
tp5665
g4
tp5666
Rp5667
(I1
(I1
tp5668
g11
I00
S'\x085\x01\x1f!J\xdd?'
p5669
tp5670
btp5671
a(g1
(g2
(I0
tp5672
g4
tp5673
Rp5674
(I1
(I1
tp5675
g11
I00
S'\x00\x00\x00\x00\x00\x00\xf0?'
p5676
tp5677
bg1
(g2
(I0
tp5678
g4
tp5679
Rp5680
(I1
(I1
tp5681
g11
I00
S'\rT\x0b^\xa0L\xdf?'
p5682
tp5683
bg1
(g2
(I0
tp5684
g4
tp5685
Rp5686
(I1
(I1
tp5687
g11
I00
S'\x10\x0f\xe3\x9d\xe3F\xdd?'
p5688
tp5689
btp5690
a(g1
(g2
(I0
tp5691
g4
tp5692
Rp5693
(I1
(I1
tp5694
g11
I00
S'\x00\x00\x00\x00\x00\x00\xf0?'
p5695
tp5696
bg1
(g2
(I0
tp5697
g4
tp5698
Rp5699
(I1
(I1
tp5700
g11
I00
S'\xfc3\x92\x82\xe4L\xdf?'
p5701
tp5702
bg1
(g2
(I0
tp5703
g4
tp5704
Rp5705
(I1
(I1
tp5706
g11
I00
S'\x0e\x95\xc8\xc4"G\xdd?'
p5707
tp5708
btp5709
a(g1
(g2
(I0
tp5710
g4
tp5711
Rp5712
(I1
(I1
tp5713
g11
I00
S'\x00\x00\x00\x00\x00\x00\xf0?'
p5714
tp5715
bg1
(g2
(I0
tp5716
g4
tp5717
Rp5718
(I1
(I1
tp5719
g11
I00
S'\x9d\xc3-\xf6\xdbL\xdf?'
p5720
tp5721
bg1
(g2
(I0
tp5722
g4
tp5723
Rp5724
(I1
(I1
tp5725
g11
I00
S'i4\xaa\xd8\x1aG\xdd?'
p5726
tp5727
btp5728
a(g1
(g2
(I0
tp5729
g4
tp5730
Rp5731
(I1
(I1
tp5732
g11
I00
S'\x00\x00\x00\x00\x00\x00\xf0?'
p5733
tp5734
bg1
(g2
(I0
tp5735
g4
tp5736
Rp5737
(I1
(I1
tp5738
g11
I00
S'\xfa\xd2\x9b\x03\xa2L\xdf?'
p5739
tp5740
bg1
(g2
(I0
tp5741
g4
tp5742
Rp5743
(I1
(I1
tp5744
g11
I00
S'KQ\x93$\xe5F\xdd?'
p5745
tp5746
btp5747
a(g1
(g2
(I0
tp5748
g4
tp5749
Rp5750
(I1
(I1
tp5751
g11
I00
S'\x00\x00\x00\x00\x00\x00\xf0?'
p5752
tp5753
bg1
(g2
(I0
tp5754
g4
tp5755
Rp5756
(I1
(I1
tp5757
g11
I00
S'\x8a\xdd:\x84cL\xdf?'
p5758
tp5759
bg1
(g2
(I0
tp5760
g4
tp5761
Rp5762
(I1
(I1
tp5763
g11
I00
S'4f\t9\xabF\xdd?'
p5764
tp5765
btp5766
a(g1
(g2
(I0
tp5767
g4
tp5768
Rp5769
(I1
(I1
tp5770
g11
I00
S'\x00\x00\x00\x00\x00\x00\xf0?'
p5771
tp5772
bg1
(g2
(I0
tp5773
g4
tp5774
Rp5775
(I1
(I1
tp5776
g11
I00
S' B+\xcf\xb1L\xdf?'
p5777
tp5778
bg1
(g2
(I0
tp5779
g4
tp5780
Rp5781
(I1
(I1
tp5782
g11
I00
S'\x90`\xfb\xc7\xf3F\xdd?'
p5783
tp5784
btp5785
a(g1
(g2
(I0
tp5786
g4
tp5787
Rp5788
(I1
(I1
tp5789
g11
I00
S'\x00\x00\x00\x00\x00\x00\xf0?'
p5790
tp5791
bg1
(g2
(I0
tp5792
g4
tp5793
Rp5794
(I1
(I1
tp5795
g11
I00
S'\xb2\xc0P\xd5\xe6L\xdf?'
p5796
tp5797
bg1
(g2
(I0
tp5798
g4
tp5799
Rp5800
(I1
(I1
tp5801
g11
I00
S'eW\xf8\xeb$G\xdd?'
p5802
tp5803
btp5804
a(g1
(g2
(I0
tp5805
g4
tp5806
Rp5807
(I1
(I1
tp5808
g11
I00
S'\x00\x00\x00\x00\x00\x00\xf0?'
p5809
tp5810
bg1
(g2
(I0
tp5811
g4
tp5812
Rp5813
(I1
(I1
tp5814
g11
I00
S'9f\x03\x1bfL\xdf?'
p5815
tp5816
bg1
(g2
(I0
tp5817
g4
tp5818
Rp5819
(I1
(I1
tp5820
g11
I00
S'7`F\x9f\xadF\xdd?'
p5821
tp5822
btp5823
a(g1
(g2
(I0
tp5824
g4
tp5825
Rp5826
(I1
(I1
tp5827
g11
I00
S'\x00\x00\x00\x00\x00\x00\xf0?'
p5828
tp5829
bg1
(g2
(I0
tp5830
g4
tp5831
Rp5832
(I1
(I1
tp5833
g11
I00
S'\xd9 \xe4[\xdeL\xdf?'
p5834
tp5835
bg1
(g2
(I0
tp5836
g4
tp5837
Rp5838
(I1
(I1
tp5839
g11
I00
S'\xc9\x14n\x11\x1dG\xdd?'
p5840
tp5841
btp5842
a(g1
(g2
(I0
tp5843
g4
tp5844
Rp5845
(I1
(I1
tp5846
g11
I00
S'\x00\x00\x00\x00\x00\x00\xf0?'
p5847
tp5848
bg1
(g2
(I0
tp5849
g4
tp5850
Rp5851
(I1
(I1
tp5852
g11
I00
S'|5\xe8\x0f\xa2L\xdf?'
p5853
tp5854
bg1
(g2
(I0
tp5855
g4
tp5856
Rp5857
(I1
(I1
tp5858
g11
I00
S'W\x1c\xf9/\xe5F\xdd?'
p5859
tp5860
btp5861
a(g1
(g2
(I0
tp5862
g4
tp5863
Rp5864
(I1
(I1
tp5865
g11
I00
S'\x00\x00\x00\x00\x00\x00\xf0?'
p5866
tp5867
bg1
(g2
(I0
tp5868
g4
tp5869
Rp5870
(I1
(I1
tp5871
g11
I00
S'\xe2O\x1cx\x00M\xdf?'
p5872
tp5873
bg1
(g2
(I0
tp5874
g4
tp5875
Rp5876
(I1
(I1
tp5877
g11
I00
S'a\x08 \xae<G\xdd?'
p5878
tp5879
btp5880
a(g1
(g2
(I0
tp5881
g4
tp5882
Rp5883
(I1
(I1
tp5884
g11
I00
S'\x00\x00\x00\x00\x00\x00\xf0?'
p5885
tp5886
bg1
(g2
(I0
tp5887
g4
tp5888
Rp5889
(I1
(I1
tp5890
g11
I00
S'\xdc\xdf\xcb\x0f\x8dL\xdf?'
p5891
tp5892
bg1
(g2
(I0
tp5893
g4
tp5894
Rp5895
(I1
(I1
tp5896
g11
I00
S'\xbbL\x9e\xb9\xd1F\xdd?'
p5897
tp5898
btp5899
a(g1
(g2
(I0
tp5900
g4
tp5901
Rp5902
(I1
(I1
tp5903
g11
I00
S'\x00\x00\x00\x00\x00\x00\xf0?'
p5904
tp5905
bg1
(g2
(I0
tp5906
g4
tp5907
Rp5908
(I1
(I1
tp5909
g11
I00
S'Pp\x1e\x05\xd6L\xdf?'
p5910
tp5911
bg1
(g2
(I0
tp5912
g4
tp5913
Rp5914
(I1
(I1
tp5915
g11
I00
S'\xd6L\x01W\x15G\xdd?'
p5916
tp5917
btp5918
a(g1
(g2
(I0
tp5919
g4
tp5920
Rp5921
(I1
(I1
tp5922
g11
I00
S'\x00\x00\x00\x00\x00\x00\xf0?'
p5923
tp5924
bg1
(g2
(I0
tp5925
g4
tp5926
Rp5927
(I1
(I1
tp5928
g11
I00
S'\xe4\x9f\xc2:QM\xdf?'
p5929
tp5930
bg1
(g2
(I0
tp5931
g4
tp5932
Rp5933
(I1
(I1
tp5934
g11
I00
S'\xd9\xe3\xad\x86\x87G\xdd?'
p5935
tp5936
btp5937
a(g1
(g2
(I0
tp5938
g4
tp5939
Rp5940
(I1
(I1
tp5941
g11
I00
S'\x00\x00\x00\x00\x00\x00\xf0?'
p5942
tp5943
bg1
(g2
(I0
tp5944
g4
tp5945
Rp5946
(I1
(I1
tp5947
g11
I00
S'\xfd\x1c|:*M\xdf?'
p5948
tp5949
bg1
(g2
(I0
tp5950
g4
tp5951
Rp5952
(I1
(I1
tp5953
g11
I00
S'\x87\xeb\x95acG\xdd?'
p5954
tp5955
btp5956
a(g1
(g2
(I0
tp5957
g4
tp5958
Rp5959
(I1
(I1
tp5960
g11
I00
S'\x00\x00\x00\x00\x00\x00\xf0?'
p5961
tp5962
bg1
(g2
(I0
tp5963
g4
tp5964
Rp5965
(I1
(I1
tp5966
g11
I00
S'\xd2\xe8\x1e\x18\xfbL\xdf?'
p5967
tp5968
bg1
(g2
(I0
tp5969
g4
tp5970
Rp5971
(I1
(I1
tp5972
g11
I00
S'\xb7w\xe8\xb27G\xdd?'
p5973
tp5974
btp5975
a(g1
(g2
(I0
tp5976
g4
tp5977
Rp5978
(I1
(I1
tp5979
g11
I00
S'\x00\x00\x00\x00\x00\x00\xf0?'
p5980
tp5981
bg1
(g2
(I0
tp5982
g4
tp5983
Rp5984
(I1
(I1
tp5985
g11
I00
S'\x13}\xd4%\x8dL\xdf?'
p5986
tp5987
bg1
(g2
(I0
tp5988
g4
tp5989
Rp5990
(I1
(I1
tp5991
g11
I00
S'<\xc8\t\xce\xd1F\xdd?'
p5992
tp5993
btp5994
a(g1
(g2
(I0
tp5995
g4
tp5996
Rp5997
(I1
(I1
tp5998
g11
I00
S'\x00\x00\x00\x00\x00\x00\xf0?'
p5999
tp6000
bg1
(g2
(I0
tp6001
g4
tp6002
Rp6003
(I1
(I1
tp6004
g11
I00
S'\x1c\xf3\x98.hL\xdf?'
p6005
tp6006
bg1
(g2
(I0
tp6007
g4
tp6008
Rp6009
(I1
(I1
tp6010
g11
I00
S'9q\xec\x8b\xafF\xdd?'
p6011
tp6012
btp6013
a(g1
(g2
(I0
tp6014
g4
tp6015
Rp6016
(I1
(I1
tp6017
g11
I00
S'\x00\x00\x00\x00\x00\x00\xf0?'
p6018
tp6019
bg1
(g2
(I0
tp6020
g4
tp6021
Rp6022
(I1
(I1
tp6023
g11
I00
S'\xcdO\xb7G\xd1L\xdf?'
p6024
tp6025
bg1
(g2
(I0
tp6026
g4
tp6027
Rp6028
(I1
(I1
tp6029
g11
I00
S'\x19gx\xf2\x10G\xdd?'
p6030
tp6031
btp6032
a(g1
(g2
(I0
tp6033
g4
tp6034
Rp6035
(I1
(I1
tp6036
g11
I00
S'\x00\x00\x00\x00\x00\x00\xf0?'
p6037
tp6038
bg1
(g2
(I0
tp6039
g4
tp6040
Rp6041
(I1
(I1
tp6042
g11
I00
S'\xdd\x8e^iaL\xdf?'
p6043
tp6044
bg1
(g2
(I0
tp6045
g4
tp6046
Rp6047
(I1
(I1
tp6048
g11
I00
S'~\x0b\xa5E\xa9F\xdd?'
p6049
tp6050
btp6051
a(g1
(g2
(I0
tp6052
g4
tp6053
Rp6054
(I1
(I1
tp6055
g11
I00
S'\x00\x00\x00\x00\x00\x00\xf0?'
p6056
tp6057
bg1
(g2
(I0
tp6058
g4
tp6059
Rp6060
(I1
(I1
tp6061
g11
I00
S'\xb4\x03\xa3\xfb1M\xdf?'
p6062
tp6063
bg1
(g2
(I0
tp6064
g4
tp6065
Rp6066
(I1
(I1
tp6067
g11
I00
S'\xfeP[\x91jG\xdd?'
p6068
tp6069
btp6070
a(g1
(g2
(I0
tp6071
g4
tp6072
Rp6073
(I1
(I1
tp6074
g11
I00
S'\x00\x00\x00\x00\x00\x00\xf0?'
p6075
tp6076
bg1
(g2
(I0
tp6077
g4
tp6078
Rp6079
(I1
(I1
tp6080
g11
I00
S'\x1fU\xa8\xc6\xbeL\xdf?'
p6081
tp6082
bg1
(g2
(I0
tp6083
g4
tp6084
Rp6085
(I1
(I1
tp6086
g11
I00
S'\xb4\xcbY\xcc\xffF\xdd?'
p6087
tp6088
btp6089
a(g1
(g2
(I0
tp6090
g4
tp6091
Rp6092
(I1
(I1
tp6093
g11
I00
S'\x00\x00\x00\x00\x00\x00\xf0?'
p6094
tp6095
bg1
(g2
(I0
tp6096
g4
tp6097
Rp6098
(I1
(I1
tp6099
g11
I00
S'\x11\x1c8\x96\x8dL\xdf?'
p6100
tp6101
bg1
(g2
(I0
tp6102
g4
tp6103
Rp6104
(I1
(I1
tp6105
g11
I00
S'w\x1a26\xd2F\xdd?'
p6106
tp6107
btp6108
a(g1
(g2
(I0
tp6109
g4
tp6110
Rp6111
(I1
(I1
tp6112
g11
I00
S'\x00\x00\x00\x00\x00\x00\xf0?'
p6113
tp6114
bg1
(g2
(I0
tp6115
g4
tp6116
Rp6117
(I1
(I1
tp6118
g11
I00
S'X\xecLOqL\xdf?'
p6119
tp6120
bg1
(g2
(I0
tp6121
g4
tp6122
Rp6123
(I1
(I1
tp6124
g11
I00
S'\xf8+z\x01\xb8F\xdd?'
p6125
tp6126
btp6127
a(g1
(g2
(I0
tp6128
g4
tp6129
Rp6130
(I1
(I1
tp6131
g11
I00
S'\x00\x00\x00\x00\x00\x00\xf0?'
p6132
tp6133
bg1
(g2
(I0
tp6134
g4
tp6135
Rp6136
(I1
(I1
tp6137
g11
I00
S'i\x12\x9bD\x8fL\xdf?'
p6138
tp6139
bg1
(g2
(I0
tp6140
g4
tp6141
Rp6142
(I1
(I1
tp6143
g11
I00
S'zO\x0f\xc5\xd3F\xdd?'
p6144
tp6145
btp6146
a(g1
(g2
(I0
tp6147
g4
tp6148
Rp6149
(I1
(I1
tp6150
g11
I00
S'\x00\x00\x00\x00\x00\x00\xf0?'
p6151
tp6152
bg1
(g2
(I0
tp6153
g4
tp6154
Rp6155
(I1
(I1
tp6156
g11
I00
S'\x0b\xdc\x884\xe2L\xdf?'
p6157
tp6158
bg1
(g2
(I0
tp6159
g4
tp6160
Rp6161
(I1
(I1
tp6162
g11
I00
S'\xc1\xc7\xf5\xa1 G\xdd?'
p6163
tp6164
btp6165
a(g1
(g2
(I0
tp6166
g4
tp6167
Rp6168
(I1
(I1
tp6169
g11
I00
S'\x00\x00\x00\x00\x00\x00\xf0?'
p6170
tp6171
bg1
(g2
(I0
tp6172
g4
tp6173
Rp6174
(I1
(I1
tp6175
g11
I00
S'd5\xa3\xb6\x1fM\xdf?'
p6176
tp6177
bg1
(g2
(I0
tp6178
g4
tp6179
Rp6180
(I1
(I1
tp6181
g11
I00
S'\x94\xeb\xdf\xa2YG\xdd?'
p6182
tp6183
btp6184
a(g1
(g2
(I0
tp6185
g4
tp6186
Rp6187
(I1
(I1
tp6188
g11
I00
S'\x00\x00\x00\x00\x00\x00\xf0?'
p6189
tp6190
bg1
(g2
(I0
tp6191
g4
tp6192
Rp6193
(I1
(I1
tp6194
g11
I00
S'\x11\x0b\xe9\xdc\xa4L\xdf?'
p6195
tp6196
bg1
(g2
(I0
tp6197
g4
tp6198
Rp6199
(I1
(I1
tp6200
g11
I00
S'\x8fQv\xc8\xe7F\xdd?'
p6201
tp6202
btp6203
a(g1
(g2
(I0
tp6204
g4
tp6205
Rp6206
(I1
(I1
tp6207
g11
I00
S'\x00\x00\x00\x00\x00\x00\xf0?'
p6208
tp6209
bg1
(g2
(I0
tp6210
g4
tp6211
Rp6212
(I1
(I1
tp6213
g11
I00
S'"\x06\xf1,\x8aL\xdf?'
p6214
tp6215
bg1
(g2
(I0
tp6216
g4
tp6217
Rp6218
(I1
(I1
tp6219
g11
I00
S'p\x04\xe1\x0c\xcfF\xdd?'
p6220
tp6221
btp6222
a(g1
(g2
(I0
tp6223
g4
tp6224
Rp6225
(I1
(I1
tp6226
g11
I00
S'\x00\x00\x00\x00\x00\x00\xf0?'
p6227
tp6228
bg1
(g2
(I0
tp6229
g4
tp6230
Rp6231
(I1
(I1
tp6232
g11
I00
S'\x8ez}}\xfdN\xdf?'
p6233
tp6234
bg1
(g2
(I0
tp6235
g4
tp6236
Rp6237
(I1
(I1
tp6238
g11
I00
S'\x1e\x85\xcbm\x14I\xdd?'
p6239
tp6240
btp6241
a(g1
(g2
(I0
tp6242
g4
tp6243
Rp6244
(I1
(I1
tp6245
g11
I00
S'\x00\x00\x00\x00\x00\x00\xf0?'
p6246
tp6247
bg1
(g2
(I0
tp6248
g4
tp6249
Rp6250
(I1
(I1
tp6251
g11
I00
S'\xe5P\xd1\xd1$M\xdf?'
p6252
tp6253
bg1
(g2
(I0
tp6254
g4
tp6255
Rp6256
(I1
(I1
tp6257
g11
I00
S',\xe5R^^G\xdd?'
p6258
tp6259
btp6260
a(g1
(g2
(I0
tp6261
g4
tp6262
Rp6263
(I1
(I1
tp6264
g11
I00
S'\x00\x00\x00\x00\x00\x00\xf0?'
p6265
tp6266
bg1
(g2
(I0
tp6267
g4
tp6268
Rp6269
(I1
(I1
tp6270
g11
I00
S'8\x0c\xd9\xe9\x9aL\xdf?'
p6271
tp6272
bg1
(g2
(I0
tp6273
g4
tp6274
Rp6275
(I1
(I1
tp6276
g11
I00
S'\x065\xf3\x8f\xdeF\xdd?'
p6277
tp6278
btp6279
a(g1
(g2
(I0
tp6280
g4
tp6281
Rp6282
(I1
(I1
tp6283
g11
I00
S'\x00\x00\x00\x00\x00\x00\xf0?'
p6284
tp6285
bg1
(g2
(I0
tp6286
g4
tp6287
Rp6288
(I1
(I1
tp6289
g11
I00
S'\x83V\xcb\xd9\x9dL\xdf?'
p6290
tp6291
bg1
(g2
(I0
tp6292
g4
tp6293
Rp6294
(I1
(I1
tp6295
g11
I00
S'7\xa0\xd2H\xe1F\xdd?'
p6296
tp6297
btp6298
a(g1
(g2
(I0
tp6299
g4
tp6300
Rp6301
(I1
(I1
tp6302
g11
I00
S'\x00\x00\x00\x00\x00\x00\xf0?'
p6303
tp6304
bg1
(g2
(I0
tp6305
g4
tp6306
Rp6307
(I1
(I1
tp6308
g11
I00
S'O\xd5\x9c3\x9fL\xdf?'
p6309
tp6310
bg1
(g2
(I0
tp6311
g4
tp6312
Rp6313
(I1
(I1
tp6314
g11
I00
S'\x16\x18P\x89\xe2F\xdd?'
p6315
tp6316
btp6317
a(g1
(g2
(I0
tp6318
g4
tp6319
Rp6320
(I1
(I1
tp6321
g11
I00
S'\x00\x00\x00\x00\x00\x00\xf0?'
p6322
tp6323
bg1
(g2
(I0
tp6324
g4
tp6325
Rp6326
(I1
(I1
tp6327
g11
I00
S'K\x8d\xe4\xd6\xf7L\xdf?'
p6328
tp6329
bg1
(g2
(I0
tp6330
g4
tp6331
Rp6332
(I1
(I1
tp6333
g11
I00
S'\xa2\xfc\xb3\xae4G\xdd?'
p6334
tp6335
btp6336
a(g1
(g2
(I0
tp6337
g4
tp6338
Rp6339
(I1
(I1
tp6340
g11
I00
S'\x00\x00\x00\x00\x00\x00\xf0?'
p6341
tp6342
bg1
(g2
(I0
tp6343
g4
tp6344
Rp6345
(I1
(I1
tp6346
g11
I00
S'\xa2\xa0z\xed\xf2L\xdf?'
p6347
tp6348
bg1
(g2
(I0
tp6349
g4
tp6350
Rp6351
(I1
(I1
tp6352
g11
I00
S'\xe0\xe7`!0G\xdd?'
p6353
tp6354
btp6355
a(g1
(g2
(I0
tp6356
g4
tp6357
Rp6358
(I1
(I1
tp6359
g11
I00
S'\x00\x00\x00\x00\x00\x00\xf0?'
p6360
tp6361
bg1
(g2
(I0
tp6362
g4
tp6363
Rp6364
(I1
(I1
tp6365
g11
I00
S'\xbd\x17\xe9L\xdaL\xdf?'
p6366
tp6367
bg1
(g2
(I0
tp6368
g4
tp6369
Rp6370
(I1
(I1
tp6371
g11
I00
S'/\xe5\x8aN\x19G\xdd?'
p6372
tp6373
btp6374
a(g1
(g2
(I0
tp6375
g4
tp6376
Rp6377
(I1
(I1
tp6378
g11
I00
S'\x00\x00\x00\x00\x00\x00\xf0?'
p6379
tp6380
bg1
(g2
(I0
tp6381
g4
tp6382
Rp6383
(I1
(I1
tp6384
g11
I00
S'\xb0\x00\xe6j\xc4L\xdf?'
p6385
tp6386
bg1
(g2
(I0
tp6387
g4
tp6388
Rp6389
(I1
(I1
tp6390
g11
I00
S'7\xe3\xd0\x06\x05G\xdd?'
p6391
tp6392
btp6393
a(g1
(g2
(I0
tp6394
g4
tp6395
Rp6396
(I1
(I1
tp6397
g11
I00
S'\x00\x00\x00\x00\x00\x00\xf0?'
p6398
tp6399
bg1
(g2
(I0
tp6400
g4
tp6401
Rp6402
(I1
(I1
tp6403
g11
I00
S'+\xc6ISKM\xdf?'
p6404
tp6405
bg1
(g2
(I0
tp6406
g4
tp6407
Rp6408
(I1
(I1
tp6409
g11
I00
S'\xf7c\xe5\r\x82G\xdd?'
p6410
tp6411
btp6412
a(g1
(g2
(I0
tp6413
g4
tp6414
Rp6415
(I1
(I1
tp6416
g11
I00
S'\x00\x00\x00\x00\x00\x00\xf0?'
p6417
tp6418
bg1
(g2
(I0
tp6419
g4
tp6420
Rp6421
(I1
(I1
tp6422
g11
I00
S'\xb4\xba\x085\x1fM\xdf?'
p6423
tp6424
bg1
(g2
(I0
tp6425
g4
tp6426
Rp6427
(I1
(I1
tp6428
g11
I00
S'FC\xc3*YG\xdd?'
p6429
tp6430
btp6431
a(g1
(g2
(I0
tp6432
g4
tp6433
Rp6434
(I1
(I1
tp6435
g11
I00
S'\x00\x00\x00\x00\x00\x00\xf0?'
p6436
tp6437
bg1
(g2
(I0
tp6438
g4
tp6439
Rp6440
(I1
(I1
tp6441
g11
I00
S'\xd8\xa6_t\x99L\xdf?'
p6442
tp6443
bg1
(g2
(I0
tp6444
g4
tp6445
Rp6446
(I1
(I1
tp6447
g11
I00
S'\xc0f\xd45\xddF\xdd?'
p6448
tp6449
btp6450
a(g1
(g2
(I0
tp6451
g4
tp6452
Rp6453
(I1
(I1
tp6454
g11
I00
S'\x00\x00\x00\x00\x00\x00\xf0?'
p6455
tp6456
bg1
(g2
(I0
tp6457
g4
tp6458
Rp6459
(I1
(I1
tp6460
g11
I00
S'u!\x90\x87IM\xdf?'
p6461
tp6462
bg1
(g2
(I0
tp6463
g4
tp6464
Rp6465
(I1
(I1
tp6466
g11
I00
S'\xefy\xd6c\x80G\xdd?'
p6467
tp6468
btp6469
a(g1
(g2
(I0
tp6470
g4
tp6471
Rp6472
(I1
(I1
tp6473
g11
I00
S'\x00\x00\x00\x00\x00\x00\xf0?'
p6474
tp6475
bg1
(g2
(I0
tp6476
g4
tp6477
Rp6478
(I1
(I1
tp6479
g11
I00
S'\xf8\\f\x04\x87M\xdf?'
p6480
tp6481
bg1
(g2
(I0
tp6482
g4
tp6483
Rp6484
(I1
(I1
tp6485
g11
I00
S'eg\xf4_\xb9G\xdd?'
p6486
tp6487
btp6488
a(g1
(g2
(I0
tp6489
g4
tp6490
Rp6491
(I1
(I1
tp6492
g11
I00
S'\x00\x00\x00\x00\x00\x00\xf0?'
p6493
tp6494
bg1
(g2
(I0
tp6495
g4
tp6496
Rp6497
(I1
(I1
tp6498
g11
I00
S')\xa6\xa2\x1f*M\xdf?'
p6499
tp6500
bg1
(g2
(I0
tp6501
g4
tp6502
Rp6503
(I1
(I1
tp6504
g11
I00
S'T\xd4\xb3HcG\xdd?'
p6505
tp6506
btp6507
a(g1
(g2
(I0
tp6508
g4
tp6509
Rp6510
(I1
(I1
tp6511
g11
I00
S'\x00\x00\x00\x00\x00\x00\xf0?'
p6512
tp6513
bg1
(g2
(I0
tp6514
g4
tp6515
Rp6516
(I1
(I1
tp6517
g11
I00
S'\x8f+\xb8\x9flL\xdf?'
p6518
tp6519
bg1
(g2
(I0
tp6520
g4
tp6521
Rp6522
(I1
(I1
tp6523
g11
I00
S'\x10\x13\xc2\xa9\xb3F\xdd?'
p6524
tp6525
btp6526
a(g1
(g2
(I0
tp6527
g4
tp6528
Rp6529
(I1
(I1
tp6530
g11
I00
S'\x00\x00\x00\x00\x00\x00\xf0?'
p6531
tp6532
bg1
(g2
(I0
tp6533
g4
tp6534
Rp6535
(I1
(I1
tp6536
g11
I00
S'\xd7\xa0\x84\xd6\xc6N\xdf?'
p6537
tp6538
bg1
(g2
(I0
tp6539
g4
tp6540
Rp6541
(I1
(I1
tp6542
g11
I00
S'\x17\x17!\xc7\xe1H\xdd?'
p6543
tp6544
btp6545
a(g1
(g2
(I0
tp6546
g4
tp6547
Rp6548
(I1
(I1
tp6549
g11
I00
S'\x00\x00\x00\x00\x00\x00\xf0?'
p6550
tp6551
bg1
(g2
(I0
tp6552
g4
tp6553
Rp6554
(I1
(I1
tp6555
g11
I00
S'\x03\x92\xf2\xe4\xe7L\xdf?'
p6556
tp6557
bg1
(g2
(I0
tp6558
g4
tp6559
Rp6560
(I1
(I1
tp6561
g11
I00
S'\x03^\xb5\xe7%G\xdd?'
p6562
tp6563
btp6564
a(g1
(g2
(I0
tp6565
g4
tp6566
Rp6567
(I1
(I1
tp6568
g11
I00
S'\x00\x00\x00\x00\x00\x00\xf0?'
p6569
tp6570
bg1
(g2
(I0
tp6571
g4
tp6572
Rp6573
(I1
(I1
tp6574
g11
I00
S'\xd1y/\xa4zL\xdf?'
p6575
tp6576
bg1
(g2
(I0
tp6577
g4
tp6578
Rp6579
(I1
(I1
tp6580
g11
I00
S'\xfbTd\xa7\xc0F\xdd?'
p6581
tp6582
btp6583
a(g1
(g2
(I0
tp6584
g4
tp6585
Rp6586
(I1
(I1
tp6587
g11
I00
S'\x00\x00\x00\x00\x00\x00\xf0?'
p6588
tp6589
bg1
(g2
(I0
tp6590
g4
tp6591
Rp6592
(I1
(I1
tp6593
g11
I00
S'\t\x01\xf3\xbf\xa1L\xdf?'
p6594
tp6595
bg1
(g2
(I0
tp6596
g4
tp6597
Rp6598
(I1
(I1
tp6599
g11
I00
S'\xa2\x18\xdf\xe5\xe4F\xdd?'
p6600
tp6601
btp6602
a(g1
(g2
(I0
tp6603
g4
tp6604
Rp6605
(I1
(I1
tp6606
g11
I00
S'\x00\x00\x00\x00\x00\x00\xf0?'
p6607
tp6608
bg1
(g2
(I0
tp6609
g4
tp6610
Rp6611
(I1
(I1
tp6612
g11
I00
S'\x83\xceoU|L\xdf?'
p6613
tp6614
bg1
(g2
(I0
tp6615
g4
tp6616
Rp6617
(I1
(I1
tp6618
g11
I00
S'S\x16\xe98\xc2F\xdd?'
p6619
tp6620
btp6621
a(g1
(g2
(I0
tp6622
g4
tp6623
Rp6624
(I1
(I1
tp6625
g11
I00
S'\x00\x00\x00\x00\x00\x00\xf0?'
p6626
tp6627
bg1
(g2
(I0
tp6628
g4
tp6629
Rp6630
(I1
(I1
tp6631
g11
I00
S'\xddtIg\x94L\xdf?'
p6632
tp6633
bg1
(g2
(I0
tp6634
g4
tp6635
Rp6636
(I1
(I1
tp6637
g11
I00
S'\xaeus\x87\xd8F\xdd?'
p6638
tp6639
btp6640
a(g1
(g2
(I0
tp6641
g4
tp6642
Rp6643
(I1
(I1
tp6644
g11
I00
S'\x00\x00\x00\x00\x00\x00\xf0?'
p6645
tp6646
bg1
(g2
(I0
tp6647
g4
tp6648
Rp6649
(I1
(I1
tp6650
g11
I00
S'\x12[\xda\x9f\xc9L\xdf?'
p6651
tp6652
bg1
(g2
(I0
tp6653
g4
tp6654
Rp6655
(I1
(I1
tp6656
g11
I00
S'\xd3M%\xda\tG\xdd?'
p6657
tp6658
btp6659
a(g1
(g2
(I0
tp6660
g4
tp6661
Rp6662
(I1
(I1
tp6663
g11
I00
S'\x00\x00\x00\x00\x00\x00\xf0?'
p6664
tp6665
bg1
(g2
(I0
tp6666
g4
tp6667
Rp6668
(I1
(I1
tp6669
g11
I00
S'\xc3\xb4-\x13\xceL\xdf?'
p6670
tp6671
bg1
(g2
(I0
tp6672
g4
tp6673
Rp6674
(I1
(I1
tp6675
g11
I00
S'(1\x07\xfa\rG\xdd?'
p6676
tp6677
btp6678
a(g1
(g2
(I0
tp6679
g4
tp6680
Rp6681
(I1
(I1
tp6682
g11
I00
S'\x00\x00\x00\x00\x00\x00\xf0?'
p6683
tp6684
bg1
(g2
(I0
tp6685
g4
tp6686
Rp6687
(I1
(I1
tp6688
g11
I00
S'{o25\xf1L\xdf?'
p6689
tp6690
bg1
(g2
(I0
tp6691
g4
tp6692
Rp6693
(I1
(I1
tp6694
g11
I00
S'\xf3oW\x89.G\xdd?'
p6695
tp6696
btp6697
a(g1
(g2
(I0
tp6698
g4
tp6699
Rp6700
(I1
(I1
tp6701
g11
I00
S'\x00\x00\x00\x00\x00\x00\xf0?'
p6702
tp6703
bg1
(g2
(I0
tp6704
g4
tp6705
Rp6706
(I1
(I1
tp6707
g11
I00
S'R\xe6\xf0\x04\xfeL\xdf?'
p6708
tp6709
bg1
(g2
(I0
tp6710
g4
tp6711
Rp6712
(I1
(I1
tp6713
g11
I00
S'\x9c#\xe3h:G\xdd?'
p6714
tp6715
btp6716
a(g1
(g2
(I0
tp6717
g4
tp6718
Rp6719
(I1
(I1
tp6720
g11
I00
S'\x00\x00\x00\x00\x00\x00\xf0?'
p6721
tp6722
bg1
(g2
(I0
tp6723
g4
tp6724
Rp6725
(I1
(I1
tp6726
g11
I00
S'8;\xb5tBN\xdf?'
p6727
tp6728
bg1
(g2
(I0
tp6729
g4
tp6730
Rp6731
(I1
(I1
tp6732
g11
I00
S'\xa2\x91\x9e\x16gH\xdd?'
p6733
tp6734
btp6735
a(g1
(g2
(I0
tp6736
g4
tp6737
Rp6738
(I1
(I1
tp6739
g11
I00
S'\x00\x00\x00\x00\x00\x00\xf0?'
p6740
tp6741
bg1
(g2
(I0
tp6742
g4
tp6743
Rp6744
(I1
(I1
tp6745
g11
I00
S'P6\xaa\xd0\xf5L\xdf?'
p6746
tp6747
bg1
(g2
(I0
tp6748
g4
tp6749
Rp6750
(I1
(I1
tp6751
g11
I00
S'c\xb9m\xce2G\xdd?'
p6752
tp6753
btp6754
a(g1
(g2
(I0
tp6755
g4
tp6756
Rp6757
(I1
(I1
tp6758
g11
I00
S'\x00\x00\x00\x00\x00\x00\xf0?'
p6759
tp6760
bg1
(g2
(I0
tp6761
g4
tp6762
Rp6763
(I1
(I1
tp6764
g11
I00
S'\x93\x8fB\xf0\x89L\xdf?'
p6765
tp6766
bg1
(g2
(I0
tp6767
g4
tp6768
Rp6769
(I1
(I1
tp6770
g11
I00
S'2V\xa4\xd4\xceF\xdd?'
p6771
tp6772
btp6773
a(g1
(g2
(I0
tp6774
g4
tp6775
Rp6776
(I1
(I1
tp6777
g11
I00
S'\x00\x00\x00\x00\x00\x00\xf0?'
p6778
tp6779
bg1
(g2
(I0
tp6780
g4
tp6781
Rp6782
(I1
(I1
tp6783
g11
I00
S'\xd2\xcf\xe1\x1c\x86L\xdf?'
p6784
tp6785
bg1
(g2
(I0
tp6786
g4
tp6787
Rp6788
(I1
(I1
tp6789
g11
I00
S'u\x05\xffH\xcbF\xdd?'
p6790
tp6791
btp6792
a(g1
(g2
(I0
tp6793
g4
tp6794
Rp6795
(I1
(I1
tp6796
g11
I00
S'\x00\x00\x00\x00\x00\x00\xf0?'
p6797
tp6798
bg1
(g2
(I0
tp6799
g4
tp6800
Rp6801
(I1
(I1
tp6802
g11
I00
S'7il`\xf3L\xdf?'
p6803
tp6804
bg1
(g2
(I0
tp6805
g4
tp6806
Rp6807
(I1
(I1
tp6808
g11
I00
S'\x1e\xa1\xe7\x8b0G\xdd?'
p6809
tp6810
btp6811
a(g1
(g2
(I0
tp6812
g4
tp6813
Rp6814
(I1
(I1
tp6815
g11
I00
S'\x00\x00\x00\x00\x00\x00\xf0?'
p6816
tp6817
bg1
(g2
(I0
tp6818
g4
tp6819
Rp6820
(I1
(I1
tp6821
g11
I00
S'NY\xc7\xad\xaeL\xdf?'
p6822
tp6823
bg1
(g2
(I0
tp6824
g4
tp6825
Rp6826
(I1
(I1
tp6827
g11
I00
S'\x112I\xe1\xf0F\xdd?'
p6828
tp6829
btp6830
a(g1
(g2
(I0
tp6831
g4
tp6832
Rp6833
(I1
(I1
tp6834
g11
I00
S'\x00\x00\x00\x00\x00\x00\xf0?'
p6835
tp6836
bg1
(g2
(I0
tp6837
g4
tp6838
Rp6839
(I1
(I1
tp6840
g11
I00
S'\xd8\xe9\x83\xa2\xb3L\xdf?'
p6841
tp6842
bg1
(g2
(I0
tp6843
g4
tp6844
Rp6845
(I1
(I1
tp6846
g11
I00
S'\x91\x80\x19y\xf5F\xdd?'
p6847
tp6848
btp6849
a(g1
(g2
(I0
tp6850
g4
tp6851
Rp6852
(I1
(I1
tp6853
g11
I00
S'\x00\x00\x00\x00\x00\x00\xf0?'
p6854
tp6855
bg1
(g2
(I0
tp6856
g4
tp6857
Rp6858
(I1
(I1
tp6859
g11
I00
S'\x02\xa5\xbe\x97\x04N\xdf?'
p6860
tp6861
bg1
(g2
(I0
tp6862
g4
tp6863
Rp6864
(I1
(I1
tp6865
g11
I00
S'\x1f\xc5C\xc1-H\xdd?'
p6866
tp6867
btp6868
a(g1
(g2
(I0
tp6869
g4
tp6870
Rp6871
(I1
(I1
tp6872
g11
I00
S'\x00\x00\x00\x00\x00\x00\xf0?'
p6873
tp6874
bg1
(g2
(I0
tp6875
g4
tp6876
Rp6877
(I1
(I1
tp6878
g11
I00
S'o\x11\x00\x0e\x7fL\xdf?'
p6879
tp6880
bg1
(g2
(I0
tp6881
g4
tp6882
Rp6883
(I1
(I1
tp6884
g11
I00
S'\x9b\x9et\xbe\xc4F\xdd?'
p6885
tp6886
btp6887
a(g1
(g2
(I0
tp6888
g4
tp6889
Rp6890
(I1
(I1
tp6891
g11
I00
S'\x00\x00\x00\x00\x00\x00\xf0?'
p6892
tp6893
bg1
(g2
(I0
tp6894
g4
tp6895
Rp6896
(I1
(I1
tp6897
g11
I00
S'\xdf,\xf7\xbb\x9fL\xdf?'
p6898
tp6899
bg1
(g2
(I0
tp6900
g4
tp6901
Rp6902
(I1
(I1
tp6903
g11
I00
S'\xe9\xd8\xad\x07\xe3F\xdd?'
p6904
tp6905
btp6906
a(g1
(g2
(I0
tp6907
g4
tp6908
Rp6909
(I1
(I1
tp6910
g11
I00
S'\x00\x00\x00\x00\x00\x00\xf0?'
p6911
tp6912
bg1
(g2
(I0
tp6913
g4
tp6914
Rp6915
(I1
(I1
tp6916
g11
I00
S'q`\xd5\xa0\xf4L\xdf?'
p6917
tp6918
bg1
(g2
(I0
tp6919
g4
tp6920
Rp6921
(I1
(I1
tp6922
g11
I00
S'[S\xd9\xb41G\xdd?'
p6923
tp6924
btp6925
a(g1
(g2
(I0
tp6926
g4
tp6927
Rp6928
(I1
(I1
tp6929
g11
I00
S'\x00\x00\x00\x00\x00\x00\xf0?'
p6930
tp6931
bg1
(g2
(I0
tp6932
g4
tp6933
Rp6934
(I1
(I1
tp6935
g11
I00
S'Cx\x05\x04\x83L\xdf?'
p6936
tp6937
bg1
(g2
(I0
tp6938
g4
tp6939
Rp6940
(I1
(I1
tp6941
g11
I00
S'\xad\xee4j\xc8F\xdd?'
p6942
tp6943
btp6944
a(g1
(g2
(I0
tp6945
g4
tp6946
Rp6947
(I1
(I1
tp6948
g11
I00
S'\x00\x00\x00\x00\x00\x00\xf0?'
p6949
tp6950
bg1
(g2
(I0
tp6951
g4
tp6952
Rp6953
(I1
(I1
tp6954
g11
I00
S'\x91r&\xed\x16M\xdf?'
p6955
tp6956
bg1
(g2
(I0
tp6957
g4
tp6958
Rp6959
(I1
(I1
tp6960
g11
I00
S'(\xf5 ~QG\xdd?'
p6961
tp6962
btp6963
a(g1
(g2
(I0
tp6964
g4
tp6965
Rp6966
(I1
(I1
tp6967
g11
I00
S'\x00\x00\x00\x00\x00\x00\xf0?'
p6968
tp6969
bg1
(g2
(I0
tp6970
g4
tp6971
Rp6972
(I1
(I1
tp6973
g11
I00
S'T~A\x8ehL\xdf?'
p6974
tp6975
bg1
(g2
(I0
tp6976
g4
tp6977
Rp6978
(I1
(I1
tp6979
g11
I00
S'\xb9W\x93\xe4\xafF\xdd?'
p6980
tp6981
btp6982
a(g1
(g2
(I0
tp6983
g4
tp6984
Rp6985
(I1
(I1
tp6986
g11
I00
S'\x00\x00\x00\x00\x00\x00\xf0?'
p6987
tp6988
bg1
(g2
(I0
tp6989
g4
tp6990
Rp6991
(I1
(I1
tp6992
g11
I00
S'e\xbe\x8b$\x00M\xdf?'
p6993
tp6994
bg1
(g2
(I0
tp6995
g4
tp6996
Rp6997
(I1
(I1
tp6998
g11
I00
S'-.\xae`<G\xdd?'
p6999
tp7000
btp7001
a(g1
(g2
(I0
tp7002
g4
tp7003
Rp7004
(I1
(I1
tp7005
g11
I00
S'\x00\x00\x00\x00\x00\x00\xf0?'
p7006
tp7007
bg1
(g2
(I0
tp7008
g4
tp7009
Rp7010
(I1
(I1
tp7011
g11
I00
S'\xc1\xd0\xa7\xf2!M\xdf?'
p7012
tp7013
bg1
(g2
(I0
tp7014
g4
tp7015
Rp7016
(I1
(I1
tp7017
g11
I00
S'GE\x00\xb5[G\xdd?'
p7018
tp7019
btp7020
a(g1
(g2
(I0
tp7021
g4
tp7022
Rp7023
(I1
(I1
tp7024
g11
I00
S'\x00\x00\x00\x00\x00\x00\xf0?'
p7025
tp7026
bg1
(g2
(I0
tp7027
g4
tp7028
Rp7029
(I1
(I1
tp7030
g11
I00
S',s7\x84\xcfL\xdf?'
p7031
tp7032
bg1
(g2
(I0
tp7033
g4
tp7034
Rp7035
(I1
(I1
tp7036
g11
I00
S'\x7f\xc6\tP\x0fG\xdd?'
p7037
tp7038
btp7039
a(g1
(g2
(I0
tp7040
g4
tp7041
Rp7042
(I1
(I1
tp7043
g11
I00
S'\x00\x00\x00\x00\x00\x00\xf0?'
p7044
tp7045
bg1
(g2
(I0
tp7046
g4
tp7047
Rp7048
(I1
(I1
tp7049
g11
I00
S'\xd5@\x8b"nL\xdf?'
p7050
tp7051
bg1
(g2
(I0
tp7052
g4
tp7053
Rp7054
(I1
(I1
tp7055
g11
I00
S'P\x06@\x10\xb5F\xdd?'
p7056
tp7057
btp7058
a(g1
(g2
(I0
tp7059
g4
tp7060
Rp7061
(I1
(I1
tp7062
g11
I00
S'\x00\x00\x00\x00\x00\x00\xf0?'
p7063
tp7064
bg1
(g2
(I0
tp7065
g4
tp7066
Rp7067
(I1
(I1
tp7068
g11
I00
S'\x1d3\x04\x07\xc7L\xdf?'
p7069
tp7070
bg1
(g2
(I0
tp7071
g4
tp7072
Rp7073
(I1
(I1
tp7074
g11
I00
S'\xc7W\x00r\x07G\xdd?'
p7075
tp7076
btp7077
a(g1
(g2
(I0
tp7078
g4
tp7079
Rp7080
(I1
(I1
tp7081
g11
I00
S'\x00\x00\x00\x00\x00\x00\xf0?'
p7082
tp7083
bg1
(g2
(I0
tp7084
g4
tp7085
Rp7086
(I1
(I1
tp7087
g11
I00
S'\xb9\xa7\xd8\xbe\x8fL\xdf?'
p7088
tp7089
bg1
(g2
(I0
tp7090
g4
tp7091
Rp7092
(I1
(I1
tp7093
g11
I00
S'\x0b\xe2X6\xd4F\xdd?'
p7094
tp7095
btp7096
a(g1
(g2
(I0
tp7097
g4
tp7098
Rp7099
(I1
(I1
tp7100
g11
I00
S'\x00\x00\x00\x00\x00\x00\xf0?'
p7101
tp7102
bg1
(g2
(I0
tp7103
g4
tp7104
Rp7105
(I1
(I1
tp7106
g11
I00
S'}2\xdb\xfeCM\xdf?'
p7107
tp7108
bg1
(g2
(I0
tp7109
g4
tp7110
Rp7111
(I1
(I1
tp7112
g11
I00
S'\tk\xe1B{G\xdd?'
p7113
tp7114
btp7115
a(g1
(g2
(I0
tp7116
g4
tp7117
Rp7118
(I1
(I1
tp7119
g11
I00
S'\x00\x00\x00\x00\x00\x00\xf0?'
p7120
tp7121
bg1
(g2
(I0
tp7122
g4
tp7123
Rp7124
(I1
(I1
tp7125
g11
I00
S'\\\x03\xad\x19pL\xdf?'
p7126
tp7127
bg1
(g2
(I0
tp7128
g4
tp7129
Rp7130
(I1
(I1
tp7131
g11
I00
S'A\xd9\x87\xe2\xb6F\xdd?'
p7132
tp7133
btp7134
a(g1
(g2
(I0
tp7135
g4
tp7136
Rp7137
(I1
(I1
tp7138
g11
I00
S'\x00\x00\x00\x00\x00\x00\xf0?'
p7139
tp7140
bg1
(g2
(I0
tp7141
g4
tp7142
Rp7143
(I1
(I1
tp7144
g11
I00
S'\xab\xcc\xb3\x82nL\xdf?'
p7145
tp7146
bg1
(g2
(I0
tp7147
g4
tp7148
Rp7149
(I1
(I1
tp7150
g11
I00
S':\x8f]i\xb5F\xdd?'
p7151
tp7152
btp7153
a(g1
(g2
(I0
tp7154
g4
tp7155
Rp7156
(I1
(I1
tp7157
g11
I00
S'\x00\x00\x00\x00\x00\x00\xf0?'
p7158
tp7159
bg1
(g2
(I0
tp7160
g4
tp7161
Rp7162
(I1
(I1
tp7163
g11
I00
S'\x14\x13\xc0\x1f\x92L\xdf?'
p7164
tp7165
bg1
(g2
(I0
tp7166
g4
tp7167
Rp7168
(I1
(I1
tp7169
g11
I00
S'\xd4\\\xa7j\xd6F\xdd?'
p7170
tp7171
btp7172
a(g1
(g2
(I0
tp7173
g4
tp7174
Rp7175
(I1
(I1
tp7176
g11
I00
S'\x00\x00\x00\x00\x00\x00\xf0?'
p7177
tp7178
bg1
(g2
(I0
tp7179
g4
tp7180
Rp7181
(I1
(I1
tp7182
g11
I00
S'\xb0\xdaK\xde\xe0L\xdf?'
p7183
tp7184
bg1
(g2
(I0
tp7185
g4
tp7186
Rp7187
(I1
(I1
tp7188
g11
I00
S'\xe4`\xc9d\x1fG\xdd?'
p7189
tp7190
btp7191
a(g1
(g2
(I0
tp7192
g4
tp7193
Rp7194
(I1
(I1
tp7195
g11
I00
S'\x00\x00\x00\x00\x00\x00\xf0?'
p7196
tp7197
bg1
(g2
(I0
tp7198
g4
tp7199
Rp7200
(I1
(I1
tp7201
g11
I00
S'*\xd3*\x1e\xdcL\xdf?'
p7202
tp7203
bg1
(g2
(I0
tp7204
g4
tp7205
Rp7206
(I1
(I1
tp7207
g11
I00
S'>\x85\xb9\xfd\x1aG\xdd?'
p7208
tp7209
btp7210
a(g1
(g2
(I0
tp7211
g4
tp7212
Rp7213
(I1
(I1
tp7214
g11
I00
S'\x00\x00\x00\x00\x00\x00\xf0?'
p7215
tp7216
bg1
(g2
(I0
tp7217
g4
tp7218
Rp7219
(I1
(I1
tp7220
g11
I00
S'({l\xe8\x85M\xdf?'
p7221
tp7222
bg1
(g2
(I0
tp7223
g4
tp7224
Rp7225
(I1
(I1
tp7226
g11
I00
S'M)\xc6X\xb8G\xdd?'
p7227
tp7228
btp7229
a(g1
(g2
(I0
tp7230
g4
tp7231
Rp7232
(I1
(I1
tp7233
g11
I00
S'\x00\x00\x00\x00\x00\x00\xf0?'
p7234
tp7235
bg1
(g2
(I0
tp7236
g4
tp7237
Rp7238
(I1
(I1
tp7239
g11
I00
S'\xf0\x02\xf7a\xdeL\xdf?'
p7240
tp7241
bg1
(g2
(I0
tp7242
g4
tp7243
Rp7244
(I1
(I1
tp7245
g11
I00
S'i\x16\x0f\x17\x1dG\xdd?'
p7246
tp7247
btp7248
a(g1
(g2
(I0
tp7249
g4
tp7250
Rp7251
(I1
(I1
tp7252
g11
I00
S'\x00\x00\x00\x00\x00\x00\xf0?'
p7253
tp7254
bg1
(g2
(I0
tp7255
g4
tp7256
Rp7257
(I1
(I1
tp7258
g11
I00
S'm\x0cU*\x8bL\xdf?'
p7259
tp7260
bg1
(g2
(I0
tp7261
g4
tp7262
Rp7263
(I1
(I1
tp7264
g11
I00
S'\x0c\xf3\xb5\xf7\xcfF\xdd?'
p7265
tp7266
btp7267
a(g1
(g2
(I0
tp7268
g4
tp7269
Rp7270
(I1
(I1
tp7271
g11
I00
S'\x00\x00\x00\x00\x00\x00\xf0?'
p7272
tp7273
bg1
(g2
(I0
tp7274
g4
tp7275
Rp7276
(I1
(I1
tp7277
g11
I00
S'^\xce\x95\xe47M\xdf?'
p7278
tp7279
bg1
(g2
(I0
tp7280
g4
tp7281
Rp7282
(I1
(I1
tp7283
g11
I00
S'\x95\x94\x81\x0bpG\xdd?'
p7284
tp7285
btp7286
a(g1
(g2
(I0
tp7287
g4
tp7288
Rp7289
(I1
(I1
tp7290
g11
I00
S'\x00\x00\x00\x00\x00\x00\xf0?'
p7291
tp7292
bg1
(g2
(I0
tp7293
g4
tp7294
Rp7295
(I1
(I1
tp7296
g11
I00
S'\xe9\xdb>\xd9\x88L\xdf?'
p7297
tp7298
bg1
(g2
(I0
tp7299
g4
tp7300
Rp7301
(I1
(I1
tp7302
g11
I00
S'\xca-\x10\xd2\xcdF\xdd?'
p7303
tp7304
btp7305
a(g1
(g2
(I0
tp7306
g4
tp7307
Rp7308
(I1
(I1
tp7309
g11
I00
S'\x00\x00\x00\x00\x00\x00\xf0?'
p7310
tp7311
bg1
(g2
(I0
tp7312
g4
tp7313
Rp7314
(I1
(I1
tp7315
g11
I00
S'ni\xc9\xc0\x93M\xdf?'
p7316
tp7317
bg1
(g2
(I0
tp7318
g4
tp7319
Rp7320
(I1
(I1
tp7321
g11
I00
S'\x94\xf7\x95-\xc5G\xdd?'
p7322
tp7323
btp7324
a(g1
(g2
(I0
tp7325
g4
tp7326
Rp7327
(I1
(I1
tp7328
g11
I00
S'\x00\x00\x00\x00\x00\x00\xf0?'
p7329
tp7330
bg1
(g2
(I0
tp7331
g4
tp7332
Rp7333
(I1
(I1
tp7334
g11
I00
S'\xa3\xd5\xe5\xa1\x84L\xdf?'
p7335
tp7336
bg1
(g2
(I0
tp7337
g4
tp7338
Rp7339
(I1
(I1
tp7340
g11
I00
S'\xdb\x0c\xc5\xe9\xc9F\xdd?'
p7341
tp7342
btp7343
a(g1
(g2
(I0
tp7344
g4
tp7345
Rp7346
(I1
(I1
tp7347
g11
I00
S'\x00\x00\x00\x00\x00\x00\xf0?'
p7348
tp7349
bg1
(g2
(I0
tp7350
g4
tp7351
Rp7352
(I1
(I1
tp7353
g11
I00
S'\xce\x9d\xb1\x16\xe5N\xdf?'
p7354
tp7355
bg1
(g2
(I0
tp7356
g4
tp7357
Rp7358
(I1
(I1
tp7359
g11
I00
S'G\x80U\xd0\xfdH\xdd?'
p7360
tp7361
btp7362
a(g1
(g2
(I0
tp7363
g4
tp7364
Rp7365
(I1
(I1
tp7366
g11
I00
S'\x00\x00\x00\x00\x00\x00\xf0?'
p7367
tp7368
bg1
(g2
(I0
tp7369
g4
tp7370
Rp7371
(I1
(I1
tp7372
g11
I00
S'\xec\x8c$\xa6\x9cL\xdf?'
p7373
tp7374
bg1
(g2
(I0
tp7375
g4
tp7376
Rp7377
(I1
(I1
tp7378
g11
I00
S'\xfb?\xb4+\xe0F\xdd?'
p7379
tp7380
btp7381
a(g1
(g2
(I0
tp7382
g4
tp7383
Rp7384
(I1
(I1
tp7385
g11
I00
S'\x00\x00\x00\x00\x00\x00\xf0?'
p7386
tp7387
bg1
(g2
(I0
tp7388
g4
tp7389
Rp7390
(I1
(I1
tp7391
g11
I00
S'?\xc2\xb1\x95\xa5L\xdf?'
p7392
tp7393
bg1
(g2
(I0
tp7394
g4
tp7395
Rp7396
(I1
(I1
tp7397
g11
I00
S'\x96b\xb6s\xe8F\xdd?'
p7398
tp7399
btp7400
a(g1
(g2
(I0
tp7401
g4
tp7402
Rp7403
(I1
(I1
tp7404
g11
I00
S'\x00\x00\x00\x00\x00\x00\xf0?'
p7405
tp7406
bg1
(g2
(I0
tp7407
g4
tp7408
Rp7409
(I1
(I1
tp7410
g11
I00
S'4\x04\xaaV\x95L\xdf?'
p7411
tp7412
bg1
(g2
(I0
tp7413
g4
tp7414
Rp7415
(I1
(I1
tp7416
g11
I00
S'\xaa\xb6Ke\xd9F\xdd?'
p7417
tp7418
btp7419
a(g1
(g2
(I0
tp7420
g4
tp7421
Rp7422
(I1
(I1
tp7423
g11
I00
S'\x00\x00\x00\x00\x00\x00\xf0?'
p7424
tp7425
bg1
(g2
(I0
tp7426
g4
tp7427
Rp7428
(I1
(I1
tp7429
g11
I00
S'Z3\xcaT\x8cL\xdf?'
p7430
tp7431
bg1
(g2
(I0
tp7432
g4
tp7433
Rp7434
(I1
(I1
tp7435
g11
I00
S'u\x01O\x0c\xd1F\xdd?'
p7436
tp7437
btp7438
a(g1
(g2
(I0
tp7439
g4
tp7440
Rp7441
(I1
(I1
tp7442
g11
I00
S'\x00\x00\x00\x00\x00\x00\xf0?'
p7443
tp7444
bg1
(g2
(I0
tp7445
g4
tp7446
Rp7447
(I1
(I1
tp7448
g11
I00
S'\xaf\x87\x98\xc7\xa9L\xdf?'
p7449
tp7450
bg1
(g2
(I0
tp7451
g4
tp7452
Rp7453
(I1
(I1
tp7454
g11
I00
S'\xf9\xd6\xf5V\xecF\xdd?'
p7455
tp7456
btp7457
a(g1
(g2
(I0
tp7458
g4
tp7459
Rp7460
(I1
(I1
tp7461
g11
I00
S'\x00\x00\x00\x00\x00\x00\xf0?'
p7462
tp7463
bg1
(g2
(I0
tp7464
g4
tp7465
Rp7466
(I1
(I1
tp7467
g11
I00
S'\xc4\x02\xe2\x8b\xcdL\xdf?'
p7468
tp7469
bg1
(g2
(I0
tp7470
g4
tp7471
Rp7472
(I1
(I1
tp7473
g11
I00
S'n.\xa4|\rG\xdd?'
p7474
tp7475
btp7476
a(g1
(g2
(I0
tp7477
g4
tp7478
Rp7479
(I1
(I1
tp7480
g11
I00
S'\x00\x00\x00\x00\x00\x00\xf0?'
p7481
tp7482
bg1
(g2
(I0
tp7483
g4
tp7484
Rp7485
(I1
(I1
tp7486
g11
I00
S'\x9fd*\x9f\xb7M\xdf?'
p7487
tp7488
bg1
(g2
(I0
tp7489
g4
tp7490
Rp7491
(I1
(I1
tp7492
g11
I00
S'\x94\x94\x8ek\xe6G\xdd?'
p7493
tp7494
btp7495
a(g1
(g2
(I0
tp7496
g4
tp7497
Rp7498
(I1
(I1
tp7499
g11
I00
S'\x00\x00\x00\x00\x00\x00\xf0?'
p7500
tp7501
bg1
(g2
(I0
tp7502
g4
tp7503
Rp7504
(I1
(I1
tp7505
g11
I00
S'\x1e\x07`\xaf\x8fM\xdf?'
p7506
tp7507
bg1
(g2
(I0
tp7508
g4
tp7509
Rp7510
(I1
(I1
tp7511
g11
I00
S'\x95\x8doh\xc1G\xdd?'
p7512
tp7513
btp7514
a(g1
(g2
(I0
tp7515
g4
tp7516
Rp7517
(I1
(I1
tp7518
g11
I00
S'\x00\x00\x00\x00\x00\x00\xf0?'
p7519
tp7520
bg1
(g2
(I0
tp7521
g4
tp7522
Rp7523
(I1
(I1
tp7524
g11
I00
S'\xa8{\xbe\x18\x1eM\xdf?'
p7525
tp7526
bg1
(g2
(I0
tp7527
g4
tp7528
Rp7529
(I1
(I1
tp7530
g11
I00
S'\xe3\xecJ#XG\xdd?'
p7531
tp7532
btp7533
a(g1
(g2
(I0
tp7534
g4
tp7535
Rp7536
(I1
(I1
tp7537
g11
I00
S'\x00\x00\x00\x00\x00\x00\xf0?'
p7538
tp7539
bg1
(g2
(I0
tp7540
g4
tp7541
Rp7542
(I1
(I1
tp7543
g11
I00
S'\x8fPp\x96\x8cL\xdf?'
p7544
tp7545
bg1
(g2
(I0
tp7546
g4
tp7547
Rp7548
(I1
(I1
tp7549
g11
I00
S'T3&I\xd1F\xdd?'
p7550
tp7551
btp7552
a(g1
(g2
(I0
tp7553
g4
tp7554
Rp7555
(I1
(I1
tp7556
g11
I00
S'\x00\x00\x00\x00\x00\x00\xf0?'
p7557
tp7558
bg1
(g2
(I0
tp7559
g4
tp7560
Rp7561
(I1
(I1
tp7562
g11
I00
S'\x1e\x80dK\x00M\xdf?'
p7563
tp7564
bg1
(g2
(I0
tp7565
g4
tp7566
Rp7567
(I1
(I1
tp7568
g11
I00
S'F\x9e\xae\x84<G\xdd?'
p7569
tp7570
btp7571
a(g1
(g2
(I0
tp7572
g4
tp7573
Rp7574
(I1
(I1
tp7575
g11
I00
S'\x00\x00\x00\x00\x00\x00\xf0?'
p7576
tp7577
bg1
(g2
(I0
tp7578
g4
tp7579
Rp7580
(I1
(I1
tp7581
g11
I00
S'\xf6\x92)\xe4kM\xdf?'
p7582
tp7583
bg1
(g2
(I0
tp7584
g4
tp7585
Rp7586
(I1
(I1
tp7587
g11
I00
S'\xad\xee><\xa0G\xdd?'
p7588
tp7589
btp7590
a(g1
(g2
(I0
tp7591
g4
tp7592
Rp7593
(I1
(I1
tp7594
g11
I00
S'\x00\x00\x00\x00\x00\x00\xf0?'
p7595
tp7596
bg1
(g2
(I0
tp7597
g4
tp7598
Rp7599
(I1
(I1
tp7600
g11
I00
S'.\x8d\x05\xeb\xa1L\xdf?'
p7601
tp7602
bg1
(g2
(I0
tp7603
g4
tp7604
Rp7605
(I1
(I1
tp7606
g11
I00
S'\x9c\x0b\xca\r\xe5F\xdd?'
p7607
tp7608
btp7609
a(g1
(g2
(I0
tp7610
g4
tp7611
Rp7612
(I1
(I1
tp7613
g11
I00
S'\x00\x00\x00\x00\x00\x00\xf0?'
p7614
tp7615
bg1
(g2
(I0
tp7616
g4
tp7617
Rp7618
(I1
(I1
tp7619
g11
I00
S'\xd4\x90\x1ay\xe2L\xdf?'
p7620
tp7621
bg1
(g2
(I0
tp7622
g4
tp7623
Rp7624
(I1
(I1
tp7625
g11
I00
S'r\xe3\x81\xe1 G\xdd?'
p7626
tp7627
btp7628
a(g1
(g2
(I0
tp7629
g4
tp7630
Rp7631
(I1
(I1
tp7632
g11
I00
S'\x00\x00\x00\x00\x00\x00\xf0?'
p7633
tp7634
bg1
(g2
(I0
tp7635
g4
tp7636
Rp7637
(I1
(I1
tp7638
g11
I00
S'I\xe4\xb2\x9f\xe7L\xdf?'
p7639
tp7640
bg1
(g2
(I0
tp7641
g4
tp7642
Rp7643
(I1
(I1
tp7644
g11
I00
S'\xee\x05\x88\xa7%G\xdd?'
p7645
tp7646
btp7647
a(g1
(g2
(I0
tp7648
g4
tp7649
Rp7650
(I1
(I1
tp7651
g11
I00
S'\x00\x00\x00\x00\x00\x00\xf0?'
p7652
tp7653
bg1
(g2
(I0
tp7654
g4
tp7655
Rp7656
(I1
(I1
tp7657
g11
I00
S'\xc3\xf8r)\x9cL\xdf?'
p7658
tp7659
bg1
(g2
(I0
tp7660
g4
tp7661
Rp7662
(I1
(I1
tp7663
g11
I00
S' \xa8$\xb8\xdfF\xdd?'
p7664
tp7665
btp7666
a(g1
(g2
(I0
tp7667
g4
tp7668
Rp7669
(I1
(I1
tp7670
g11
I00
S'\x00\x00\x00\x00\x00\x00\xf0?'
p7671
tp7672
bg1
(g2
(I0
tp7673
g4
tp7674
Rp7675
(I1
(I1
tp7676
g11
I00
S'\x1c\xf8\x01w\xfaL\xdf?'
p7677
tp7678
bg1
(g2
(I0
tp7679
g4
tp7680
Rp7681
(I1
(I1
tp7682
g11
I00
S'#,\x98\x1d7G\xdd?'
p7683
tp7684
btp7685
a(g1
(g2
(I0
tp7686
g4
tp7687
Rp7688
(I1
(I1
tp7689
g11
I00
S'\x00\x00\x00\x00\x00\x00\xf0?'
p7690
tp7691
bg1
(g2
(I0
tp7692
g4
tp7693
Rp7694
(I1
(I1
tp7695
g11
I00
S'l\xfb\xba{\xbbL\xdf?'
p7696
tp7697
bg1
(g2
(I0
tp7698
g4
tp7699
Rp7700
(I1
(I1
tp7701
g11
I00
S'\xa9\xd4(\xbf\xfcF\xdd?'
p7702
tp7703
btp7704
a(g1
(g2
(I0
tp7705
g4
tp7706
Rp7707
(I1
(I1
tp7708
g11
I00
S'\x00\x00\x00\x00\x00\x00\xf0?'
p7709
tp7710
bg1
(g2
(I0
tp7711
g4
tp7712
Rp7713
(I1
(I1
tp7714
g11
I00
S'\x1c);\xd1\xabL\xdf?'
p7715
tp7716
bg1
(g2
(I0
tp7717
g4
tp7718
Rp7719
(I1
(I1
tp7720
g11
I00
S'9\xfec:\xeeF\xdd?'
p7721
tp7722
btp7723
a(g1
(g2
(I0
tp7724
g4
tp7725
Rp7726
(I1
(I1
tp7727
g11
I00
S'\x00\x00\x00\x00\x00\x00\xf0?'
p7728
tp7729
bg1
(g2
(I0
tp7730
g4
tp7731
Rp7732
(I1
(I1
tp7733
g11
I00
S'\xee9\xd8\xea\xdaL\xdf?'
p7734
tp7735
bg1
(g2
(I0
tp7736
g4
tp7737
Rp7738
(I1
(I1
tp7739
g11
I00
S'\x11\xeb\xe8\xe0\x19G\xdd?'
p7740
tp7741
btp7742
a(g1
(g2
(I0
tp7743
g4
tp7744
Rp7745
(I1
(I1
tp7746
g11
I00
S'\x00\x00\x00\x00\x00\x00\xf0?'
p7747
tp7748
bg1
(g2
(I0
tp7749
g4
tp7750
Rp7751
(I1
(I1
tp7752
g11
I00
S'A\xf8\x7f^\xaeL\xdf?'
p7753
tp7754
bg1
(g2
(I0
tp7755
g4
tp7756
Rp7757
(I1
(I1
tp7758
g11
I00
S'<C\xd0\x97\xf0F\xdd?'
p7759
tp7760
btp7761
a(g1
(g2
(I0
tp7762
g4
tp7763
Rp7764
(I1
(I1
tp7765
g11
I00
S'\x00\x00\x00\x00\x00\x00\xf0?'
p7766
tp7767
bg1
(g2
(I0
tp7768
g4
tp7769
Rp7770
(I1
(I1
tp7771
g11
I00
S'\xab\x82\x82\x02$M\xdf?'
p7772
tp7773
bg1
(g2
(I0
tp7774
g4
tp7775
Rp7776
(I1
(I1
tp7777
g11
I00
S'\xc8\xb52\x9e]G\xdd?'
p7778
tp7779
btp7780
a(g1
(g2
(I0
tp7781
g4
tp7782
Rp7783
(I1
(I1
tp7784
g11
I00
S'\x00\x00\x00\x00\x00\x00\xf0?'
p7785
tp7786
bg1
(g2
(I0
tp7787
g4
tp7788
Rp7789
(I1
(I1
tp7790
g11
I00
S'p?9\xf4\x8dL\xdf?'
p7791
tp7792
bg1
(g2
(I0
tp7793
g4
tp7794
Rp7795
(I1
(I1
tp7796
g11
I00
S'\xe9\xa7P\x8d\xd2F\xdd?'
p7797
tp7798
btp7799
a(g1
(g2
(I0
tp7800
g4
tp7801
Rp7802
(I1
(I1
tp7803
g11
I00
S'\x00\x00\x00\x00\x00\x00\xf0?'
p7804
tp7805
bg1
(g2
(I0
tp7806
g4
tp7807
Rp7808
(I1
(I1
tp7809
g11
I00
S'\xd8\xe0\xe5\xbcJM\xdf?'
p7810
tp7811
bg1
(g2
(I0
tp7812
g4
tp7813
Rp7814
(I1
(I1
tp7815
g11
I00
S'\xc4\xf1\x84\x82\x81G\xdd?'
p7816
tp7817
btp7818
a(g1
(g2
(I0
tp7819
g4
tp7820
Rp7821
(I1
(I1
tp7822
g11
I00
S'\x00\x00\x00\x00\x00\x00\xf0?'
p7823
tp7824
bg1
(g2
(I0
tp7825
g4
tp7826
Rp7827
(I1
(I1
tp7828
g11
I00
S'\xfa\x1f\x82T\x92L\xdf?'
p7829
tp7830
bg1
(g2
(I0
tp7831
g4
tp7832
Rp7833
(I1
(I1
tp7834
g11
I00
S'\xbc3\x8c\x9b\xd6F\xdd?'
p7835
tp7836
btp7837
a(g1
(g2
(I0
tp7838
g4
tp7839
Rp7840
(I1
(I1
tp7841
g11
I00
S'\x00\x00\x00\x00\x00\x00\xf0?'
p7842
tp7843
bg1
(g2
(I0
tp7844
g4
tp7845
Rp7846
(I1
(I1
tp7847
g11
I00
S'R\x9f)\x96\x9eL\xdf?'
p7848
tp7849
bg1
(g2
(I0
tp7850
g4
tp7851
Rp7852
(I1
(I1
tp7853
g11
I00
S'Q\ne\xf7\xe1F\xdd?'
p7854
tp7855
btp7856
a(g1
(g2
(I0
tp7857
g4
tp7858
Rp7859
(I1
(I1
tp7860
g11
I00
S'\x00\x00\x00\x00\x00\x00\xf0?'
p7861
tp7862
bg1
(g2
(I0
tp7863
g4
tp7864
Rp7865
(I1
(I1
tp7866
g11
I00
S'\x86 \xe9\xba\xabL\xdf?'
p7867
tp7868
bg1
(g2
(I0
tp7869
g4
tp7870
Rp7871
(I1
(I1
tp7872
g11
I00
S'\xadu\xb4%\xeeF\xdd?'
p7873
tp7874
btp7875
a(g1
(g2
(I0
tp7876
g4
tp7877
Rp7878
(I1
(I1
tp7879
g11
I00
S'\x00\x00\x00\x00\x00\x00\xf0?'
p7880
tp7881
bg1
(g2
(I0
tp7882
g4
tp7883
Rp7884
(I1
(I1
tp7885
g11
I00
S'n\x13\xdf\x94\xe6L\xdf?'
p7886
tp7887
bg1
(g2
(I0
tp7888
g4
tp7889
Rp7890
(I1
(I1
tp7891
g11
I00
S'\xe3\xea>\xb0$G\xdd?'
p7892
tp7893
btp7894
a(g1
(g2
(I0
tp7895
g4
tp7896
Rp7897
(I1
(I1
tp7898
g11
I00
S'\x00\x00\x00\x00\x00\x00\xf0?'
p7899
tp7900
bg1
(g2
(I0
tp7901
g4
tp7902
Rp7903
(I1
(I1
tp7904
g11
I00
S'\xcf\x87*\x1b\xdeL\xdf?'
p7905
tp7906
bg1
(g2
(I0
tp7907
g4
tp7908
Rp7909
(I1
(I1
tp7910
g11
I00
S'\xc1\x02r\xd5\x1cG\xdd?'
p7911
tp7912
btp7913
a(g1
(g2
(I0
tp7914
g4
tp7915
Rp7916
(I1
(I1
tp7917
g11
I00
S'\x00\x00\x00\x00\x00\x00\xf0?'
p7918
tp7919
bg1
(g2
(I0
tp7920
g4
tp7921
Rp7922
(I1
(I1
tp7923
g11
I00
S'\r\xe2\xe7\xc7nL\xdf?'
p7924
tp7925
bg1
(g2
(I0
tp7926
g4
tp7927
Rp7928
(I1
(I1
tp7929
g11
I00
S'k\x0c\x80\xa9\xb5F\xdd?'
p7930
tp7931
btp7932
a(g1
(g2
(I0
tp7933
g4
tp7934
Rp7935
(I1
(I1
tp7936
g11
I00
S'\x00\x00\x00\x00\x00\x00\xf0?'
p7937
tp7938
bg1
(g2
(I0
tp7939
g4
tp7940
Rp7941
(I1
(I1
tp7942
g11
I00
S'\x0eR8;\x00M\xdf?'
p7943
tp7944
bg1
(g2
(I0
tp7945
g4
tp7946
Rp7947
(I1
(I1
tp7948
g11
I00
S'\x84\xa6\xb1u<G\xdd?'
p7949
tp7950
btp7951
a(g1
(g2
(I0
tp7952
g4
tp7953
Rp7954
(I1
(I1
tp7955
g11
I00
S'\x00\x00\x00\x00\x00\x00\xf0?'
p7956
tp7957
bg1
(g2
(I0
tp7958
g4
tp7959
Rp7960
(I1
(I1
tp7961
g11
I00
S'\xaa+K\xd49M\xdf?'
p7962
tp7963
bg1
(g2
(I0
tp7964
g4
tp7965
Rp7966
(I1
(I1
tp7967
g11
I00
S'\xcc\x80\xe9\xd6qG\xdd?'
p7968
tp7969
btp7970
a(g1
(g2
(I0
tp7971
g4
tp7972
Rp7973
(I1
(I1
tp7974
g11
I00
S'\x00\x00\x00\x00\x00\x00\xf0?'
p7975
tp7976
bg1
(g2
(I0
tp7977
g4
tp7978
Rp7979
(I1
(I1
tp7980
g11
I00
S'\xb2\x9c\x97e~L\xdf?'
p7981
tp7982
bg1
(g2
(I0
tp7983
g4
tp7984
Rp7985
(I1
(I1
tp7986
g11
I00
S'\xec\xd9a"\xc4F\xdd?'
p7987
tp7988
btp7989
a(g1
(g2
(I0
tp7990
g4
tp7991
Rp7992
(I1
(I1
tp7993
g11
I00
S'\x00\x00\x00\x00\x00\x00\xf0?'
p7994
tp7995
bg1
(g2
(I0
tp7996
g4
tp7997
Rp7998
(I1
(I1
tp7999
g11
I00
S'\xe7E~V\x98L\xdf?'
p8000
tp8001
bg1
(g2
(I0
tp8002
g4
tp8003
Rp8004
(I1
(I1
tp8005
g11
I00
S'\xdf>\xe3,\xdcF\xdd?'
p8006
tp8007
btp8008
a(g1
(g2
(I0
tp8009
g4
tp8010
Rp8011
(I1
(I1
tp8012
g11
I00
S'\x00\x00\x00\x00\x00\x00\xf0?'
p8013
tp8014
bg1
(g2
(I0
tp8015
g4
tp8016
Rp8017
(I1
(I1
tp8018
g11
I00
S'\x91/A\xae+M\xdf?'
p8019
tp8020
bg1
(g2
(I0
tp8021
g4
tp8022
Rp8023
(I1
(I1
tp8024
g11
I00
S'a\x0f!\xbadG\xdd?'
p8025
tp8026
btp8027
a(g1
(g2
(I0
tp8028
g4
tp8029
Rp8030
(I1
(I1
tp8031
g11
I00
S'\x00\x00\x00\x00\x00\x00\xf0?'
p8032
tp8033
bg1
(g2
(I0
tp8034
g4
tp8035
Rp8036
(I1
(I1
tp8037
g11
I00
S'\xf9\xe2b\xda\x9dL\xdf?'
p8038
tp8039
bg1
(g2
(I0
tp8040
g4
tp8041
Rp8042
(I1
(I1
tp8043
g11
I00
S'+\x13_I\xe1F\xdd?'
p8044
tp8045
btp8046
a(g1
(g2
(I0
tp8047
g4
tp8048
Rp8049
(I1
(I1
tp8050
g11
I00
S'\x00\x00\x00\x00\x00\x00\xf0?'
p8051
tp8052
bg1
(g2
(I0
tp8053
g4
tp8054
Rp8055
(I1
(I1
tp8056
g11
I00
S'\xbbG\xd4\xd0\xeeL\xdf?'
p8057
tp8058
bg1
(g2
(I0
tp8059
g4
tp8060
Rp8061
(I1
(I1
tp8062
g11
I00
S'\x04i\xd2Q,G\xdd?'
p8063
tp8064
btp8065
a(g1
(g2
(I0
tp8066
g4
tp8067
Rp8068
(I1
(I1
tp8069
g11
I00
S'\x00\x00\x00\x00\x00\x00\xf0?'
p8070
tp8071
bg1
(g2
(I0
tp8072
g4
tp8073
Rp8074
(I1
(I1
tp8075
g11
I00
S'\xfb\x84\xde\xb2eL\xdf?'
p8076
tp8077
bg1
(g2
(I0
tp8078
g4
tp8079
Rp8080
(I1
(I1
tp8081
g11
I00
S'\xf7@\xc2>\xadF\xdd?'
p8082
tp8083
btp8084
a(g1
(g2
(I0
tp8085
g4
tp8086
Rp8087
(I1
(I1
tp8088
g11
I00
S'\x00\x00\x00\x00\x00\x00\xf0?'
p8089
tp8090
bg1
(g2
(I0
tp8091
g4
tp8092
Rp8093
(I1
(I1
tp8094
g11
I00
S'\x06\x95\xb0=\xf3L\xdf?'
p8095
tp8096
bg1
(g2
(I0
tp8097
g4
tp8098
Rp8099
(I1
(I1
tp8100
g11
I00
S'0\x03\xb7k0G\xdd?'
p8101
tp8102
btp8103
a(g1
(g2
(I0
tp8104
g4
tp8105
Rp8106
(I1
(I1
tp8107
g11
I00
S'\x00\x00\x00\x00\x00\x00\xf0?'
p8108
tp8109
bg1
(g2
(I0
tp8110
g4
tp8111
Rp8112
(I1
(I1
tp8113
g11
I00
S'\xbe\xa9$\xf1^L\xdf?'
p8114
tp8115
bg1
(g2
(I0
tp8116
g4
tp8117
Rp8118
(I1
(I1
tp8119
g11
I00
S'\xf7\xc7\xb9\xfb\xa6F\xdd?'
p8120
tp8121
btp8122
a(g1
(g2
(I0
tp8123
g4
tp8124
Rp8125
(I1
(I1
tp8126
g11
I00
S'\x00\x00\x00\x00\x00\x00\xf0?'
p8127
tp8128
bg1
(g2
(I0
tp8129
g4
tp8130
Rp8131
(I1
(I1
tp8132
g11
I00
S'$\x0eY*\xfeL\xdf?'
p8133
tp8134
bg1
(g2
(I0
tp8135
g4
tp8136
Rp8137
(I1
(I1
tp8138
g11
I00
S'H\xf8\x8d\x8b:G\xdd?'
p8139
tp8140
btp8141
a(g1
(g2
(I0
tp8142
g4
tp8143
Rp8144
(I1
(I1
tp8145
g11
I00
S'\x00\x00\x00\x00\x00\x00\xf0?'
p8146
tp8147
bg1
(g2
(I0
tp8148
g4
tp8149
Rp8150
(I1
(I1
tp8151
g11
I00
S'\x15,#\xf6\x91L\xdf?'
p8152
tp8153
bg1
(g2
(I0
tp8154
g4
tp8155
Rp8156
(I1
(I1
tp8157
g11
I00
S'm\xb3\x16D\xd6F\xdd?'
p8158
tp8159
btp8160
a(g1
(g2
(I0
tp8161
g4
tp8162
Rp8163
(I1
(I1
tp8164
g11
I00
S'\x00\x00\x00\x00\x00\x00\xf0?'
p8165
tp8166
bg1
(g2
(I0
tp8167
g4
tp8168
Rp8169
(I1
(I1
tp8170
g11
I00
S'\x12\x0b7\\zL\xdf?'
p8171
tp8172
bg1
(g2
(I0
tp8173
g4
tp8174
Rp8175
(I1
(I1
tp8176
g11
I00
S'n]\xb1d\xc0F\xdd?'
p8177
tp8178
btp8179
a(g1
(g2
(I0
tp8180
g4
tp8181
Rp8182
(I1
(I1
tp8183
g11
I00
S'\x00\x00\x00\x00\x00\x00\xf0?'
p8184
tp8185
bg1
(g2
(I0
tp8186
g4
tp8187
Rp8188
(I1
(I1
tp8189
g11
I00
S')\xa2\x05\xd1lL\xdf?'
p8190
tp8191
bg1
(g2
(I0
tp8192
g4
tp8193
Rp8194
(I1
(I1
tp8195
g11
I00
S'y\x17s\xd7\xb3F\xdd?'
p8196
tp8197
btp8198
a(g1
(g2
(I0
tp8199
g4
tp8200
Rp8201
(I1
(I1
tp8202
g11
I00
S'\x00\x00\x00\x00\x00\x00\xf0?'
p8203
tp8204
bg1
(g2
(I0
tp8205
g4
tp8206
Rp8207
(I1
(I1
tp8208
g11
I00
S'\xfb\x1e\xf2}\xcaL\xdf?'
p8209
tp8210
bg1
(g2
(I0
tp8211
g4
tp8212
Rp8213
(I1
(I1
tp8214
g11
I00
S'Y\xff\xf8\xa7\nG\xdd?'
p8215
tp8216
btp8217
a(g1
(g2
(I0
tp8218
g4
tp8219
Rp8220
(I1
(I1
tp8221
g11
I00
S'\x00\x00\x00\x00\x00\x00\xf0?'
p8222
tp8223
bg1
(g2
(I0
tp8224
g4
tp8225
Rp8226
(I1
(I1
tp8227
g11
I00
S'jT\xbb\x1e\xa1L\xdf?'
p8228
tp8229
bg1
(g2
(I0
tp8230
g4
tp8231
Rp8232
(I1
(I1
tp8233
g11
I00
S']6vP\xe4F\xdd?'
p8234
tp8235
btp8236
a(g1
(g2
(I0
tp8237
g4
tp8238
Rp8239
(I1
(I1
tp8240
g11
I00
S'\x00\x00\x00\x00\x00\x00\xf0?'
p8241
tp8242
bg1
(g2
(I0
tp8243
g4
tp8244
Rp8245
(I1
(I1
tp8246
g11
I00
S'`\xa5xx\xa9L\xdf?'
p8247
tp8248
bg1
(g2
(I0
tp8249
g4
tp8250
Rp8251
(I1
(I1
tp8252
g11
I00
S'\xa6\x83\xa1\r\xecF\xdd?'
p8253
tp8254
btp8255
a(g1
(g2
(I0
tp8256
g4
tp8257
Rp8258
(I1
(I1
tp8259
g11
I00
S'\x00\x00\x00\x00\x00\x00\xf0?'
p8260
tp8261
bg1
(g2
(I0
tp8262
g4
tp8263
Rp8264
(I1
(I1
tp8265
g11
I00
S'\x19\xb0\x95\x98\xdbL\xdf?'
p8266
tp8267
bg1
(g2
(I0
tp8268
g4
tp8269
Rp8270
(I1
(I1
tp8271
g11
I00
S'\x95\xec\xec\x81\x1aG\xdd?'
p8272
tp8273
btp8274
a(g1
(g2
(I0
tp8275
g4
tp8276
Rp8277
(I1
(I1
tp8278
g11
I00
S'\x00\x00\x00\x00\x00\x00\xf0?'
p8279
tp8280
bg1
(g2
(I0
tp8281
g4
tp8282
Rp8283
(I1
(I1
tp8284
g11
I00
S'\xa1\xcb\xbd\xf6\xa4L\xdf?'
p8285
tp8286
bg1
(g2
(I0
tp8287
g4
tp8288
Rp8289
(I1
(I1
tp8290
g11
I00
S'\xd8\xbef\xe0\xe7F\xdd?'
p8291
tp8292
btp8293
a(g1
(g2
(I0
tp8294
g4
tp8295
Rp8296
(I1
(I1
tp8297
g11
I00
S'\x00\x00\x00\x00\x00\x00\xf0?'
p8298
tp8299
bg1
(g2
(I0
tp8300
g4
tp8301
Rp8302
(I1
(I1
tp8303
g11
I00
S'\xc0\xd9\x07_\xf8L\xdf?'
p8304
tp8305
bg1
(g2
(I0
tp8306
g4
tp8307
Rp8308
(I1
(I1
tp8309
g11
I00
S'\x9e\xe2\xde,5G\xdd?'
p8310
tp8311
btp8312
a(g1
(g2
(I0
tp8313
g4
tp8314
Rp8315
(I1
(I1
tp8316
g11
I00
S'\x00\x00\x00\x00\x00\x00\xf0?'
p8317
tp8318
bg1
(g2
(I0
tp8319
g4
tp8320
Rp8321
(I1
(I1
tp8322
g11
I00
S'\x8e\x88ky\xc9L\xdf?'
p8323
tp8324
bg1
(g2
(I0
tp8325
g4
tp8326
Rp8327
(I1
(I1
tp8328
g11
I00
S'\xd0\x11\x87\xb6\tG\xdd?'
p8329
tp8330
btp8331
a(g1
(g2
(I0
tp8332
g4
tp8333
Rp8334
(I1
(I1
tp8335
g11
I00
S'\x00\x00\x00\x00\x00\x00\xf0?'
p8336
tp8337
bg1
(g2
(I0
tp8338
g4
tp8339
Rp8340
(I1
(I1
tp8341
g11
I00
S'\xba\xe9\xf5\xbe\x9cL\xdf?'
p8342
tp8343
bg1
(g2
(I0
tp8344
g4
tp8345
Rp8346
(I1
(I1
tp8347
g11
I00
S'OH\xb4B\xe0F\xdd?'
p8348
tp8349
btp8350
a(g1
(g2
(I0
tp8351
g4
tp8352
Rp8353
(I1
(I1
tp8354
g11
I00
S'\x00\x00\x00\x00\x00\x00\xf0?'
p8355
tp8356
bg1
(g2
(I0
tp8357
g4
tp8358
Rp8359
(I1
(I1
tp8360
g11
I00
S'\xfb\xa7A\xd0\xe7L\xdf?'
p8361
tp8362
bg1
(g2
(I0
tp8363
g4
tp8364
Rp8365
(I1
(I1
tp8366
g11
I00
S'\tc\x88\xd4%G\xdd?'
p8367
tp8368
btp8369
a(g1
(g2
(I0
tp8370
g4
tp8371
Rp8372
(I1
(I1
tp8373
g11
I00
S'\x00\x00\x00\x00\x00\x00\xf0?'
p8374
tp8375
bg1
(g2
(I0
tp8376
g4
tp8377
Rp8378
(I1
(I1
tp8379
g11
I00
S'J6]\xf5\x9aL\xdf?'
p8380
tp8381
bg1
(g2
(I0
tp8382
g4
tp8383
Rp8384
(I1
(I1
tp8385
g11
I00
S'sq\x9f\x9a\xdeF\xdd?'
p8386
tp8387
btp8388
a(g1
(g2
(I0
tp8389
g4
tp8390
Rp8391
(I1
(I1
tp8392
g11
I00
S'\x00\x00\x00\x00\x00\x00\xf0?'
p8393
tp8394
bg1
(g2
(I0
tp8395
g4
tp8396
Rp8397
(I1
(I1
tp8398
g11
I00
S'.\xf895"M\xdf?'
p8399
tp8400
bg1
(g2
(I0
tp8401
g4
tp8402
Rp8403
(I1
(I1
tp8404
g11
I00
S'\xcbX\xb2\xf2[G\xdd?'
p8405
tp8406
btp8407
a(g1
(g2
(I0
tp8408
g4
tp8409
Rp8410
(I1
(I1
tp8411
g11
I00
S'\x00\x00\x00\x00\x00\x00\xf0?'
p8412
tp8413
bg1
(g2
(I0
tp8414
g4
tp8415
Rp8416
(I1
(I1
tp8417
g11
I00
S'\x88\xbf0\xf8\xadL\xdf?'
p8418
tp8419
bg1
(g2
(I0
tp8420
g4
tp8421
Rp8422
(I1
(I1
tp8423
g11
I00
S'\x85M\xff8\xf0F\xdd?'
p8424
tp8425
btp8426
a(g1
(g2
(I0
tp8427
g4
tp8428
Rp8429
(I1
(I1
tp8430
g11
I00
S'\x00\x00\x00\x00\x00\x00\xf0?'
p8431
tp8432
bg1
(g2
(I0
tp8433
g4
tp8434
Rp8435
(I1
(I1
tp8436
g11
I00
S'\x97\xe2}\xba\x84L\xdf?'
p8437
tp8438
bg1
(g2
(I0
tp8439
g4
tp8440
Rp8441
(I1
(I1
tp8442
g11
I00
S'\xf7\xf5\x8f\x00\xcaF\xdd?'
p8443
tp8444
btp8445
a(g1
(g2
(I0
tp8446
g4
tp8447
Rp8448
(I1
(I1
tp8449
g11
I00
S'\x00\x00\x00\x00\x00\x00\xf0?'
p8450
tp8451
bg1
(g2
(I0
tp8452
g4
tp8453
Rp8454
(I1
(I1
tp8455
g11
I00
S'\xb6u\x15\x9c\x96M\xdf?'
p8456
tp8457
bg1
(g2
(I0
tp8458
g4
tp8459
Rp8460
(I1
(I1
tp8461
g11
I00
S'V\xafT\xd3\xc7G\xdd?'
p8462
tp8463
btp8464
a(g1
(g2
(I0
tp8465
g4
tp8466
Rp8467
(I1
(I1
tp8468
g11
I00
S'\x00\x00\x00\x00\x00\x00\xf0?'
p8469
tp8470
bg1
(g2
(I0
tp8471
g4
tp8472
Rp8473
(I1
(I1
tp8474
g11
I00
S'\x08\xb73\x10\x9dL\xdf?'
p8475
tp8476
bg1
(g2
(I0
tp8477
g4
tp8478
Rp8479
(I1
(I1
tp8480
g11
I00
S'g\xd2\xfe\x8d\xe0F\xdd?'
p8481
tp8482
btp8483
a(g1
(g2
(I0
tp8484
g4
tp8485
Rp8486
(I1
(I1
tp8487
g11
I00
S'\x00\x00\x00\x00\x00\x00\xf0?'
p8488
tp8489
bg1
(g2
(I0
tp8490
g4
tp8491
Rp8492
(I1
(I1
tp8493
g11
I00
S'4\xc4L\xa4yL\xdf?'
p8494
tp8495
bg1
(g2
(I0
tp8496
g4
tp8497
Rp8498
(I1
(I1
tp8499
g11
I00
S'\x8a\x8c?\xba\xbfF\xdd?'
p8500
tp8501
btp8502
a(g1
(g2
(I0
tp8503
g4
tp8504
Rp8505
(I1
(I1
tp8506
g11
I00
S'\x00\x00\x00\x00\x00\x00\xf0?'
p8507
tp8508
bg1
(g2
(I0
tp8509
g4
tp8510
Rp8511
(I1
(I1
tp8512
g11
I00
S'\xe0\xc9\xa7O\xb0L\xdf?'
p8513
tp8514
bg1
(g2
(I0
tp8515
g4
tp8516
Rp8517
(I1
(I1
tp8518
g11
I00
S'\xb5\x9e\x8ed\xf2F\xdd?'
p8519
tp8520
btp8521
a(g1
(g2
(I0
tp8522
g4
tp8523
Rp8524
(I1
(I1
tp8525
g11
I00
S'\x00\x00\x00\x00\x00\x00\xf0?'
p8526
tp8527
bg1
(g2
(I0
tp8528
g4
tp8529
Rp8530
(I1
(I1
tp8531
g11
I00
S'\xb46\xe5\xc6\xa8L\xdf?'
p8532
tp8533
bg1
(g2
(I0
tp8534
g4
tp8535
Rp8536
(I1
(I1
tp8537
g11
I00
S'H\x92\x0fi\xebF\xdd?'
p8538
tp8539
btp8540
a(g1
(g2
(I0
tp8541
g4
tp8542
Rp8543
(I1
(I1
tp8544
g11
I00
S'\x00\x00\x00\x00\x00\x00\xf0?'
p8545
tp8546
bg1
(g2
(I0
tp8547
g4
tp8548
Rp8549
(I1
(I1
tp8550
g11
I00
S'\xb2Gd\xf4qL\xdf?'
p8551
tp8552
bg1
(g2
(I0
tp8553
g4
tp8554
Rp8555
(I1
(I1
tp8556
g11
I00
S'\xda\x00z\x9a\xb8F\xdd?'
p8557
tp8558
btp8559
a(g1
(g2
(I0
tp8560
g4
tp8561
Rp8562
(I1
(I1
tp8563
g11
I00
S'\x00\x00\x00\x00\x00\x00\xf0?'
p8564
tp8565
bg1
(g2
(I0
tp8566
g4
tp8567
Rp8568
(I1
(I1
tp8569
g11
I00
S'\xb4\xbd\xdd\xea\xf3L\xdf?'
p8570
tp8571
bg1
(g2
(I0
tp8572
g4
tp8573
Rp8574
(I1
(I1
tp8575
g11
I00
S'\xc8V5\x0c1G\xdd?'
p8576
tp8577
btp8578
a(g1
(g2
(I0
tp8579
g4
tp8580
Rp8581
(I1
(I1
tp8582
g11
I00
S'\x00\x00\x00\x00\x00\x00\xf0?'
p8583
tp8584
bg1
(g2
(I0
tp8585
g4
tp8586
Rp8587
(I1
(I1
tp8588
g11
I00
S'\x0c\x108\x82\xceL\xdf?'
p8589
tp8590
bg1
(g2
(I0
tp8591
g4
tp8592
Rp8593
(I1
(I1
tp8594
g11
I00
S'n\xa1\xef`\x0eG\xdd?'
p8595
tp8596
btp8597
a(g1
(g2
(I0
tp8598
g4
tp8599
Rp8600
(I1
(I1
tp8601
g11
I00
S'\x00\x00\x00\x00\x00\x00\xf0?'
p8602
tp8603
bg1
(g2
(I0
tp8604
g4
tp8605
Rp8606
(I1
(I1
tp8607
g11
I00
S'$w\x02O\xe8L\xdf?'
p8608
tp8609
bg1
(g2
(I0
tp8610
g4
tp8611
Rp8612
(I1
(I1
tp8613
g11
I00
S'^\xb8\x00J&G\xdd?'
p8614
tp8615
btp8616
a(g1
(g2
(I0
tp8617
g4
tp8618
Rp8619
(I1
(I1
tp8620
g11
I00
S'\x00\x00\x00\x00\x00\x00\xf0?'
p8621
tp8622
bg1
(g2
(I0
tp8623
g4
tp8624
Rp8625
(I1
(I1
tp8626
g11
I00
S';X\x11B\xe7L\xdf?'
p8627
tp8628
bg1
(g2
(I0
tp8629
g4
tp8630
Rp8631
(I1
(I1
tp8632
g11
I00
S'\x80\xf3\xc1P%G\xdd?'
p8633
tp8634
btp8635
a(g1
(g2
(I0
tp8636
g4
tp8637
Rp8638
(I1
(I1
tp8639
g11
I00
S'\x00\x00\x00\x00\x00\x00\xf0?'
p8640
tp8641
bg1
(g2
(I0
tp8642
g4
tp8643
Rp8644
(I1
(I1
tp8645
g11
I00
S't#\xd7\x9a\x85M\xdf?'
p8646
tp8647
bg1
(g2
(I0
tp8648
g4
tp8649
Rp8650
(I1
(I1
tp8651
g11
I00
S'$B\xdf\x10\xb8G\xdd?'
p8652
tp8653
btp8654
a(g1
(g2
(I0
tp8655
g4
tp8656
Rp8657
(I1
(I1
tp8658
g11
I00
S'\x00\x00\x00\x00\x00\x00\xf0?'
p8659
tp8660
bg1
(g2
(I0
tp8661
g4
tp8662
Rp8663
(I1
(I1
tp8664
g11
I00
S'y\xa1\xdb\x1f\xd2L\xdf?'
p8665
tp8666
bg1
(g2
(I0
tp8667
g4
tp8668
Rp8669
(I1
(I1
tp8670
g11
I00
S'W?\xc8\xba\x11G\xdd?'
p8671
tp8672
btp8673
a(g1
(g2
(I0
tp8674
g4
tp8675
Rp8676
(I1
(I1
tp8677
g11
I00
S'\x00\x00\x00\x00\x00\x00\xf0?'
p8678
tp8679
bg1
(g2
(I0
tp8680
g4
tp8681
Rp8682
(I1
(I1
tp8683
g11
I00
S'\xde,Ak\x11M\xdf?'
p8684
tp8685
bg1
(g2
(I0
tp8686
g4
tp8687
Rp8688
(I1
(I1
tp8689
g11
I00
S'\xc5\xcb|cLG\xdd?'
p8690
tp8691
btp8692
a(g1
(g2
(I0
tp8693
g4
tp8694
Rp8695
(I1
(I1
tp8696
g11
I00
S'\x00\x00\x00\x00\x00\x00\xf0?'
p8697
tp8698
bg1
(g2
(I0
tp8699
g4
tp8700
Rp8701
(I1
(I1
tp8702
g11
I00
S'\x90\xef\x92#vL\xdf?'
p8703
tp8704
bg1
(g2
(I0
tp8705
g4
tp8706
Rp8707
(I1
(I1
tp8708
g11
I00
S'J\x9b3{\xbcF\xdd?'
p8709
tp8710
btp8711
a(g1
(g2
(I0
tp8712
g4
tp8713
Rp8714
(I1
(I1
tp8715
g11
I00
S'\x00\x00\x00\x00\x00\x00\xf0?'
p8716
tp8717
bg1
(g2
(I0
tp8718
g4
tp8719
Rp8720
(I1
(I1
tp8721
g11
I00
S'l\t\x81\x9e\x82L\xdf?'
p8722
tp8723
bg1
(g2
(I0
tp8724
g4
tp8725
Rp8726
(I1
(I1
tp8727
g11
I00
S'O\xf7\x1f\x0c\xc8F\xdd?'
p8728
tp8729
btp8730
a(g1
(g2
(I0
tp8731
g4
tp8732
Rp8733
(I1
(I1
tp8734
g11
I00
S'\x00\x00\x00\x00\x00\x00\xf0?'
p8735
tp8736
bg1
(g2
(I0
tp8737
g4
tp8738
Rp8739
(I1
(I1
tp8740
g11
I00
S'\xef\x1c\x0b,\xf6L\xdf?'
p8741
tp8742
bg1
(g2
(I0
tp8743
g4
tp8744
Rp8745
(I1
(I1
tp8746
g11
I00
S'Ef\x1d#3G\xdd?'
p8747
tp8748
btp8749
a(g1
(g2
(I0
tp8750
g4
tp8751
Rp8752
(I1
(I1
tp8753
g11
I00
S'\x00\x00\x00\x00\x00\x00\xf0?'
p8754
tp8755
bg1
(g2
(I0
tp8756
g4
tp8757
Rp8758
(I1
(I1
tp8759
g11
I00
S'\x8c\x8a\t;\xdeL\xdf?'
p8760
tp8761
bg1
(g2
(I0
tp8762
g4
tp8763
Rp8764
(I1
(I1
tp8765
g11
I00
S'bx\xfb\xf2\x1cG\xdd?'
p8766
tp8767
btp8768
a(g1
(g2
(I0
tp8769
g4
tp8770
Rp8771
(I1
(I1
tp8772
g11
I00
S'\x00\x00\x00\x00\x00\x00\xf0?'
p8773
tp8774
bg1
(g2
(I0
tp8775
g4
tp8776
Rp8777
(I1
(I1
tp8778
g11
I00
S'\xa6\x0b[\xe9\xd7L\xdf?'
p8779
tp8780
bg1
(g2
(I0
tp8781
g4
tp8782
Rp8783
(I1
(I1
tp8784
g11
I00
S'\xd4\xea\xc6\x17\x17G\xdd?'
p8785
tp8786
btp8787
a(g1
(g2
(I0
tp8788
g4
tp8789
Rp8790
(I1
(I1
tp8791
g11
I00
S'\x00\x00\x00\x00\x00\x00\xf0?'
p8792
tp8793
bg1
(g2
(I0
tp8794
g4
tp8795
Rp8796
(I1
(I1
tp8797
g11
I00
S'K\xdb\x95\xd9\xe8L\xdf?'
p8798
tp8799
bg1
(g2
(I0
tp8800
g4
tp8801
Rp8802
(I1
(I1
tp8803
g11
I00
S'\xfc\xf9m\xca&G\xdd?'
p8804
tp8805
btp8806
a(g1
(g2
(I0
tp8807
g4
tp8808
Rp8809
(I1
(I1
tp8810
g11
I00
S'\x00\x00\x00\x00\x00\x00\xf0?'
p8811
tp8812
bg1
(g2
(I0
tp8813
g4
tp8814
Rp8815
(I1
(I1
tp8816
g11
I00
S'\xc8\x81hpvL\xdf?'
p8817
tp8818
bg1
(g2
(I0
tp8819
g4
tp8820
Rp8821
(I1
(I1
tp8822
g11
I00
S'\x8d\x82h\xc2\xbcF\xdd?'
p8823
tp8824
btp8825
a(g1
(g2
(I0
tp8826
g4
tp8827
Rp8828
(I1
(I1
tp8829
g11
I00
S'\x00\x00\x00\x00\x00\x00\xf0?'
p8830
tp8831
bg1
(g2
(I0
tp8832
g4
tp8833
Rp8834
(I1
(I1
tp8835
g11
I00
S'n\x8a\xf7\xf4\xe5L\xdf?'
p8836
tp8837
bg1
(g2
(I0
tp8838
g4
tp8839
Rp8840
(I1
(I1
tp8841
g11
I00
S'\x06i\r\x1c$G\xdd?'
p8842
tp8843
btp8844
a(g1
(g2
(I0
tp8845
g4
tp8846
Rp8847
(I1
(I1
tp8848
g11
I00
S'\x00\x00\x00\x00\x00\x00\xf0?'
p8849
tp8850
bg1
(g2
(I0
tp8851
g4
tp8852
Rp8853
(I1
(I1
tp8854
g11
I00
S'\xb34@\x06\xe5L\xdf?'
p8855
tp8856
bg1
(g2
(I0
tp8857
g4
tp8858
Rp8859
(I1
(I1
tp8860
g11
I00
S'\x8e\xbc\xd1>#G\xdd?'
p8861
tp8862
btp8863
a(g1
(g2
(I0
tp8864
g4
tp8865
Rp8866
(I1
(I1
tp8867
g11
I00
S'\x00\x00\x00\x00\x00\x00\xf0?'
p8868
tp8869
bg1
(g2
(I0
tp8870
g4
tp8871
Rp8872
(I1
(I1
tp8873
g11
I00
S'\xf6"\xd1\x1e}N\xdf?'
p8874
tp8875
bg1
(g2
(I0
tp8876
g4
tp8877
Rp8878
(I1
(I1
tp8879
g11
I00
S',\xaf\x1fu\x9dH\xdd?'
p8880
tp8881
btp8882
a(g1
(g2
(I0
tp8883
g4
tp8884
Rp8885
(I1
(I1
tp8886
g11
I00
S'\x00\x00\x00\x00\x00\x00\xf0?'
p8887
tp8888
bg1
(g2
(I0
tp8889
g4
tp8890
Rp8891
(I1
(I1
tp8892
g11
I00
S'\xb4\xeb\xd5\xa2mL\xdf?'
p8893
tp8894
bg1
(g2
(I0
tp8895
g4
tp8896
Rp8897
(I1
(I1
tp8898
g11
I00
S'\x8bG\xe5\x99\xb4F\xdd?'
p8899
tp8900
btp8901
a(g1
(g2
(I0
tp8902
g4
tp8903
Rp8904
(I1
(I1
tp8905
g11
I00
S'\x00\x00\x00\x00\x00\x00\xf0?'
p8906
tp8907
bg1
(g2
(I0
tp8908
g4
tp8909
Rp8910
(I1
(I1
tp8911
g11
I00
S'\x89\xf9^P\xa0L\xdf?'
p8912
tp8913
bg1
(g2
(I0
tp8914
g4
tp8915
Rp8916
(I1
(I1
tp8917
g11
I00
S'k\x137\x91\xe3F\xdd?'
p8918
tp8919
btp8920
a(g1
(g2
(I0
tp8921
g4
tp8922
Rp8923
(I1
(I1
tp8924
g11
I00
S'\x00\x00\x00\x00\x00\x00\xf0?'
p8925
tp8926
bg1
(g2
(I0
tp8927
g4
tp8928
Rp8929
(I1
(I1
tp8930
g11
I00
S'\x89\xb64\xc6\xc9L\xdf?'
p8931
tp8932
bg1
(g2
(I0
tp8933
g4
tp8934
Rp8935
(I1
(I1
tp8936
g11
I00
S'\x80\x92\xb0\xfd\tG\xdd?'
p8937
tp8938
btp8939
a(g1
(g2
(I0
tp8940
g4
tp8941
Rp8942
(I1
(I1
tp8943
g11
I00
S'\x00\x00\x00\x00\x00\x00\xf0?'
p8944
tp8945
bg1
(g2
(I0
tp8946
g4
tp8947
Rp8948
(I1
(I1
tp8949
g11
I00
S'\x13\xe9\\\xe0\xdeL\xdf?'
p8950
tp8951
bg1
(g2
(I0
tp8952
g4
tp8953
Rp8954
(I1
(I1
tp8955
g11
I00
S"1'3\x8c\x1dG\xdd?"
p8956
tp8957
btp8958
a(g1
(g2
(I0
tp8959
g4
tp8960
Rp8961
(I1
(I1
tp8962
g11
I00
S'\x00\x00\x00\x00\x00\x00\xf0?'
p8963
tp8964
bg1
(g2
(I0
tp8965
g4
tp8966
Rp8967
(I1
(I1
tp8968
g11
I00
S'NO\x12R\x98L\xdf?'
p8969
tp8970
bg1
(g2
(I0
tp8971
g4
tp8972
Rp8973
(I1
(I1
tp8974
g11
I00
S'v0\xca(\xdcF\xdd?'
p8975
tp8976
btp8977
a(g1
(g2
(I0
tp8978
g4
tp8979
Rp8980
(I1
(I1
tp8981
g11
I00
S'\x00\x00\x00\x00\x00\x00\xf0?'
p8982
tp8983
bg1
(g2
(I0
tp8984
g4
tp8985
Rp8986
(I1
(I1
tp8987
g11
I00
S'\xff\t\xc8\x1e\x8aL\xdf?'
p8988
tp8989
bg1
(g2
(I0
tp8990
g4
tp8991
Rp8992
(I1
(I1
tp8993
g11
I00
S'\t\x89\xc1\xff\xceF\xdd?'
p8994
tp8995
btp8996
a(g1
(g2
(I0
tp8997
g4
tp8998
Rp8999
(I1
(I1
tp9000
g11
I00
S'\x00\x00\x00\x00\x00\x00\xf0?'
p9001
tp9002
bg1
(g2
(I0
tp9003
g4
tp9004
Rp9005
(I1
(I1
tp9006
g11
I00
S'\x8f\x0c\x12g\xd2L\xdf?'
p9007
tp9008
bg1
(g2
(I0
tp9009
g4
tp9010
Rp9011
(I1
(I1
tp9012
g11
I00
S'\xe2}\xc7\xfc\x11G\xdd?'
p9013
tp9014
btp9015
a(g1
(g2
(I0
tp9016
g4
tp9017
Rp9018
(I1
(I1
tp9019
g11
I00
S'\x00\x00\x00\x00\x00\x00\xf0?'
p9020
tp9021
bg1
(g2
(I0
tp9022
g4
tp9023
Rp9024
(I1
(I1
tp9025
g11
I00
S'\xa1T\xc9w\xbeM\xdf?'
p9026
tp9027
bg1
(g2
(I0
tp9028
g4
tp9029
Rp9030
(I1
(I1
tp9031
g11
I00
S':\xb5\xd6\xc3\xecG\xdd?'
p9032
tp9033
btp9034
a(g1
(g2
(I0
tp9035
g4
tp9036
Rp9037
(I1
(I1
tp9038
g11
I00
S'\x00\x00\x00\x00\x00\x00\xf0?'
p9039
tp9040
bg1
(g2
(I0
tp9041
g4
tp9042
Rp9043
(I1
(I1
tp9044
g11
I00
S'b\xca\xc8\x13mL\xdf?'
p9045
tp9046
bg1
(g2
(I0
tp9047
g4
tp9048
Rp9049
(I1
(I1
tp9050
g11
I00
S'\xc8lR\x15\xb4F\xdd?'
p9051
tp9052
btp9053
a(g1
(g2
(I0
tp9054
g4
tp9055
Rp9056
(I1
(I1
tp9057
g11
I00
S'\x00\x00\x00\x00\x00\x00\xf0?'
p9058
tp9059
bg1
(g2
(I0
tp9060
g4
tp9061
Rp9062
(I1
(I1
tp9063
g11
I00
S'\x89,7L\x9eL\xdf?'
p9064
tp9065
bg1
(g2
(I0
tp9066
g4
tp9067
Rp9068
(I1
(I1
tp9069
g11
I00
S'\xcd\x15\xdd\xb2\xe1F\xdd?'
p9070
tp9071
btp9072
a(g1
(g2
(I0
tp9073
g4
tp9074
Rp9075
(I1
(I1
tp9076
g11
I00
S'\x00\x00\x00\x00\x00\x00\xf0?'
p9077
tp9078
bg1
(g2
(I0
tp9079
g4
tp9080
Rp9081
(I1
(I1
tp9082
g11
I00
S'\xc6\xd9@\xe5\xe6L\xdf?'
p9083
tp9084
bg1
(g2
(I0
tp9085
g4
tp9086
Rp9087
(I1
(I1
tp9088
g11
I00
S'E\x9f\xbd\xfa$G\xdd?'
p9089
tp9090
btp9091
a(g1
(g2
(I0
tp9092
g4
tp9093
Rp9094
(I1
(I1
tp9095
g11
I00
S'\x00\x00\x00\x00\x00\x00\xf0?'
p9096
tp9097
bg1
(g2
(I0
tp9098
g4
tp9099
Rp9100
(I1
(I1
tp9101
g11
I00
S'\xe9=*\x80\xe4L\xdf?'
p9102
tp9103
bg1
(g2
(I0
tp9104
g4
tp9105
Rp9106
(I1
(I1
tp9107
g11
I00
S'\x93\xbb\x8d\xc2"G\xdd?'
p9108
tp9109
btp9110
a(g1
(g2
(I0
tp9111
g4
tp9112
Rp9113
(I1
(I1
tp9114
g11
I00
S'\x00\x00\x00\x00\x00\x00\xf0?'
p9115
tp9116
bg1
(g2
(I0
tp9117
g4
tp9118
Rp9119
(I1
(I1
tp9120
g11
I00
S'\x1a\xfdCN_L\xdf?'
p9121
tp9122
bg1
(g2
(I0
tp9123
g4
tp9124
Rp9125
(I1
(I1
tp9126
g11
I00
S'\xe7\x00\x07R\xa7F\xdd?'
p9127
tp9128
btp9129
a(g1
(g2
(I0
tp9130
g4
tp9131
Rp9132
(I1
(I1
tp9133
g11
I00
S'\x00\x00\x00\x00\x00\x00\xf0?'
p9134
tp9135
bg1
(g2
(I0
tp9136
g4
tp9137
Rp9138
(I1
(I1
tp9139
g11
I00
S'\x98\xccH{\xe3L\xdf?'
p9140
tp9141
bg1
(g2
(I0
tp9142
g4
tp9143
Rp9144
(I1
(I1
tp9145
g11
I00
S'\x00\x84\xc7\xd0!G\xdd?'
p9146
tp9147
btp9148
a(g1
(g2
(I0
tp9149
g4
tp9150
Rp9151
(I1
(I1
tp9152
g11
I00
S'\x00\x00\x00\x00\x00\x00\xf0?'
p9153
tp9154
bg1
(g2
(I0
tp9155
g4
tp9156
Rp9157
(I1
(I1
tp9158
g11
I00
S'C\xa8\xbe=\x87N\xdf?'
p9159
tp9160
bg1
(g2
(I0
tp9161
g4
tp9162
Rp9163
(I1
(I1
tp9164
g11
I00
S'; Z\xd6\xa6H\xdd?'
p9165
tp9166
btp9167
a(g1
(g2
(I0
tp9168
g4
tp9169
Rp9170
(I1
(I1
tp9171
g11
I00
S'\x00\x00\x00\x00\x00\x00\xf0?'
p9172
tp9173
bg1
(g2
(I0
tp9174
g4
tp9175
Rp9176
(I1
(I1
tp9177
g11
I00
S'\xe2\x03j\x7f\x15M\xdf?'
p9178
tp9179
bg1
(g2
(I0
tp9180
g4
tp9181
Rp9182
(I1
(I1
tp9183
g11
I00
S'\x9co-+PG\xdd?'
p9184
tp9185
btp9186
a(g1
(g2
(I0
tp9187
g4
tp9188
Rp9189
(I1
(I1
tp9190
g11
I00
S'\x00\x00\x00\x00\x00\x00\xf0?'
p9191
tp9192
bg1
(g2
(I0
tp9193
g4
tp9194
Rp9195
(I1
(I1
tp9196
g11
I00
S'\\\xb3\xbe\\\xe4L\xdf?'
p9197
tp9198
bg1
(g2
(I0
tp9199
g4
tp9200
Rp9201
(I1
(I1
tp9202
g11
I00
S'kG\xba\xa1"G\xdd?'
p9203
tp9204
btp9205
a(g1
(g2
(I0
tp9206
g4
tp9207
Rp9208
(I1
(I1
tp9209
g11
I00
S'\x00\x00\x00\x00\x00\x00\xf0?'
p9210
tp9211
bg1
(g2
(I0
tp9212
g4
tp9213
Rp9214
(I1
(I1
tp9215
g11
I00
S'\xbbO\xa0\xdf\x9aL\xdf?'
p9216
tp9217
bg1
(g2
(I0
tp9218
g4
tp9219
Rp9220
(I1
(I1
tp9221
g11
I00
S'\xf7\x1fz\x86\xdeF\xdd?'
p9222
tp9223
btp9224
a(g1
(g2
(I0
tp9225
g4
tp9226
Rp9227
(I1
(I1
tp9228
g11
I00
S'\x00\x00\x00\x00\x00\x00\xf0?'
p9229
tp9230
bg1
(g2
(I0
tp9231
g4
tp9232
Rp9233
(I1
(I1
tp9234
g11
I00
S'\xc0\xefD\x85\x8bM\xdf?'
p9235
tp9236
bg1
(g2
(I0
tp9237
g4
tp9238
Rp9239
(I1
(I1
tp9240
g11
I00
S'\xf0kf\x8c\xbdG\xdd?'
p9241
tp9242
btp9243
a(g1
(g2
(I0
tp9244
g4
tp9245
Rp9246
(I1
(I1
tp9247
g11
I00
S'\x00\x00\x00\x00\x00\x00\xf0?'
p9248
tp9249
bg1
(g2
(I0
tp9250
g4
tp9251
Rp9252
(I1
(I1
tp9253
g11
I00
S'A\xb3R\\\xddL\xdf?'
p9254
tp9255
bg1
(g2
(I0
tp9256
g4
tp9257
Rp9258
(I1
(I1
tp9259
g11
I00
S'aK\x94$\x1cG\xdd?'
p9260
tp9261
btp9262
a(g1
(g2
(I0
tp9263
g4
tp9264
Rp9265
(I1
(I1
tp9266
g11
I00
S'\x00\x00\x00\x00\x00\x00\xf0?'
p9267
tp9268
bg1
(g2
(I0
tp9269
g4
tp9270
Rp9271
(I1
(I1
tp9272
g11
I00
S'\x0c\xe0T\xab\xe1L\xdf?'
p9273
tp9274
bg1
(g2
(I0
tp9275
g4
tp9276
Rp9277
(I1
(I1
tp9278
g11
I00
S'\xdb4\xce" G\xdd?'
p9279
tp9280
btp9281
a(g1
(g2
(I0
tp9282
g4
tp9283
Rp9284
(I1
(I1
tp9285
g11
I00
S'\x00\x00\x00\x00\x00\x00\xf0?'
p9286
tp9287
bg1
(g2
(I0
tp9288
g4
tp9289
Rp9290
(I1
(I1
tp9291
g11
I00
S'\x82\xd1\x02\x0b\x9fL\xdf?'
p9292
tp9293
bg1
(g2
(I0
tp9294
g4
tp9295
Rp9296
(I1
(I1
tp9297
g11
I00
S'\xf8Y\xafc\xe2F\xdd?'
p9298
tp9299
btp9300
a(g1
(g2
(I0
tp9301
g4
tp9302
Rp9303
(I1
(I1
tp9304
g11
I00
S'\x00\x00\x00\x00\x00\x00\xf0?'
p9305
tp9306
bg1
(g2
(I0
tp9307
g4
tp9308
Rp9309
(I1
(I1
tp9310
g11
I00
S'\xb1\x9d/c\xccL\xdf?'
p9311
tp9312
bg1
(g2
(I0
tp9313
g4
tp9314
Rp9315
(I1
(I1
tp9316
g11
I00
S'\xa9\x9d\xaci\x0cG\xdd?'
p9317
tp9318
btp9319
a(g1
(g2
(I0
tp9320
g4
tp9321
Rp9322
(I1
(I1
tp9323
g11
I00
S'\x00\x00\x00\x00\x00\x00\xf0?'
p9324
tp9325
bg1
(g2
(I0
tp9326
g4
tp9327
Rp9328
(I1
(I1
tp9329
g11
I00
S'\xb3\xb2\x16r\x86L\xdf?'
p9330
tp9331
bg1
(g2
(I0
tp9332
g4
tp9333
Rp9334
(I1
(I1
tp9335
g11
I00
S'\x0fF\xf6\x97\xcbF\xdd?'
p9336
tp9337
btp9338
a(g1
(g2
(I0
tp9339
g4
tp9340
Rp9341
(I1
(I1
tp9342
g11
I00
S'\x00\x00\x00\x00\x00\x00\xf0?'
p9343
tp9344
bg1
(g2
(I0
tp9345
g4
tp9346
Rp9347
(I1
(I1
tp9348
g11
I00
S'e\xf7Q\x8c\xc5L\xdf?'
p9349
tp9350
bg1
(g2
(I0
tp9351
g4
tp9352
Rp9353
(I1
(I1
tp9354
g11
I00
S'\x05e\n\x13\x06G\xdd?'
p9355
tp9356
btp9357
a(g1
(g2
(I0
tp9358
g4
tp9359
Rp9360
(I1
(I1
tp9361
g11
I00
S'\x00\x00\x00\x00\x00\x00\xf0?'
p9362
tp9363
bg1
(g2
(I0
tp9364
g4
tp9365
Rp9366
(I1
(I1
tp9367
g11
I00
S'\xf5F\x87\xf6oM\xdf?'
p9368
tp9369
bg1
(g2
(I0
tp9370
g4
tp9371
Rp9372
(I1
(I1
tp9373
g11
I00
S'\xd4IG\x02\xa4G\xdd?'
p9374
tp9375
btp9376
a(g1
(g2
(I0
tp9377
g4
tp9378
Rp9379
(I1
(I1
tp9380
g11
I00
S'\x00\x00\x00\x00\x00\x00\xf0?'
p9381
tp9382
bg1
(g2
(I0
tp9383
g4
tp9384
Rp9385
(I1
(I1
tp9386
g11
I00
S'Lo\x1c\xee\xecL\xdf?'
p9387
tp9388
bg1
(g2
(I0
tp9389
g4
tp9390
Rp9391
(I1
(I1
tp9392
g11
I00
S')\xf0t\x92*G\xdd?'
p9393
tp9394
btp9395
a(g1
(g2
(I0
tp9396
g4
tp9397
Rp9398
(I1
(I1
tp9399
g11
I00
S'\x00\x00\x00\x00\x00\x00\xf0?'
p9400
tp9401
bg1
(g2
(I0
tp9402
g4
tp9403
Rp9404
(I1
(I1
tp9405
g11
I00
S'R\xdc\x1b\x83\x1eM\xdf?'
p9406
tp9407
bg1
(g2
(I0
tp9408
g4
tp9409
Rp9410
(I1
(I1
tp9411
g11
I00
S'F)\xde\x85XG\xdd?'
p9412
tp9413
btp9414
a(g1
(g2
(I0
tp9415
g4
tp9416
Rp9417
(I1
(I1
tp9418
g11
I00
S'\x00\x00\x00\x00\x00\x00\xf0?'
p9419
tp9420
bg1
(g2
(I0
tp9421
g4
tp9422
Rp9423
(I1
(I1
tp9424
g11
I00
S'\xce\xdbYQ\xf1L\xdf?'
p9425
tp9426
bg1
(g2
(I0
tp9427
g4
tp9428
Rp9429
(I1
(I1
tp9430
g11
I00
S'@\x02o\xa3.G\xdd?'
p9431
tp9432
btp9433
a(g1
(g2
(I0
tp9434
g4
tp9435
Rp9436
(I1
(I1
tp9437
g11
I00
S'\x00\x00\x00\x00\x00\x00\xf0?'
p9438
tp9439
bg1
(g2
(I0
tp9440
g4
tp9441
Rp9442
(I1
(I1
tp9443
g11
I00
S'\xd9\xfa\xf6Q\x8eL\xdf?'
p9444
tp9445
bg1
(g2
(I0
tp9446
g4
tp9447
Rp9448
(I1
(I1
tp9449
g11
I00
S']\xbd0\xe4\xd2F\xdd?'
p9450
tp9451
btp9452
a(g1
(g2
(I0
tp9453
g4
tp9454
Rp9455
(I1
(I1
tp9456
g11
I00
S'\x00\x00\x00\x00\x00\x00\xf0?'
p9457
tp9458
bg1
(g2
(I0
tp9459
g4
tp9460
Rp9461
(I1
(I1
tp9462
g11
I00
S'\xaauz\xda|L\xdf?'
p9463
tp9464
bg1
(g2
(I0
tp9465
g4
tp9466
Rp9467
(I1
(I1
tp9468
g11
I00
S'I-5\xb4\xc2F\xdd?'
p9469
tp9470
btp9471
a(g1
(g2
(I0
tp9472
g4
tp9473
Rp9474
(I1
(I1
tp9475
g11
I00
S'\x00\x00\x00\x00\x00\x00\xf0?'
p9476
tp9477
bg1
(g2
(I0
tp9478
g4
tp9479
Rp9480
(I1
(I1
tp9481
g11
I00
S'[z\x8fFoL\xdf?'
p9482
tp9483
bg1
(g2
(I0
tp9484
g4
tp9485
Rp9486
(I1
(I1
tp9487
g11
I00
S'\x89\xd0\xe0\x1e\xb6F\xdd?'
p9488
tp9489
btp9490
a(g1
(g2
(I0
tp9491
g4
tp9492
Rp9493
(I1
(I1
tp9494
g11
I00
S'\x00\x00\x00\x00\x00\x00\xf0?'
p9495
tp9496
bg1
(g2
(I0
tp9497
g4
tp9498
Rp9499
(I1
(I1
tp9500
g11
I00
S'\xbe%}\xc6\x8bL\xdf?'
p9501
tp9502
bg1
(g2
(I0
tp9503
g4
tp9504
Rp9505
(I1
(I1
tp9506
g11
I00
S'R\x1an\x88\xd0F\xdd?'
p9507
tp9508
btp9509
a(g1
(g2
(I0
tp9510
g4
tp9511
Rp9512
(I1
(I1
tp9513
g11
I00
S'\x00\x00\x00\x00\x00\x00\xf0?'
p9514
tp9515
bg1
(g2
(I0
tp9516
g4
tp9517
Rp9518
(I1
(I1
tp9519
g11
I00
S'\xb8\xe8{L\xf9L\xdf?'
p9520
tp9521
bg1
(g2
(I0
tp9522
g4
tp9523
Rp9524
(I1
(I1
tp9525
g11
I00
S'\xb7\x04\xef\x086G\xdd?'
p9526
tp9527
btp9528
a(g1
(g2
(I0
tp9529
g4
tp9530
Rp9531
(I1
(I1
tp9532
g11
I00
S'\x00\x00\x00\x00\x00\x00\xf0?'
p9533
tp9534
bg1
(g2
(I0
tp9535
g4
tp9536
Rp9537
(I1
(I1
tp9538
g11
I00
S'%\xd5\x07\x10\xc0L\xdf?'
p9539
tp9540
bg1
(g2
(I0
tp9541
g4
tp9542
Rp9543
(I1
(I1
tp9544
g11
I00
S'\x81\xc1\x99\xfd\x00G\xdd?'
p9545
tp9546
btp9547
a(g1
(g2
(I0
tp9548
g4
tp9549
Rp9550
(I1
(I1
tp9551
g11
I00
S'\x00\x00\x00\x00\x00\x00\xf0?'
p9552
tp9553
bg1
(g2
(I0
tp9554
g4
tp9555
Rp9556
(I1
(I1
tp9557
g11
I00
S'\xe0RG\x01VM\xdf?'
p9558
tp9559
bg1
(g2
(I0
tp9560
g4
tp9561
Rp9562
(I1
(I1
tp9563
g11
I00
S'\x0c}\xab\xf3\x8bG\xdd?'
p9564
tp9565
btp9566
a(g1
(g2
(I0
tp9567
g4
tp9568
Rp9569
(I1
(I1
tp9570
g11
I00
S'\x00\x00\x00\x00\x00\x00\xf0?'
p9571
tp9572
bg1
(g2
(I0
tp9573
g4
tp9574
Rp9575
(I1
(I1
tp9576
g11
I00
S'Lc\xf8v[L\xdf?'
p9577
tp9578
bg1
(g2
(I0
tp9579
g4
tp9580
Rp9581
(I1
(I1
tp9582
g11
I00
S'f\xd5\xc0\xc2\xa3F\xdd?'
p9583
tp9584
btp9585
a(g1
(g2
(I0
tp9586
g4
tp9587
Rp9588
(I1
(I1
tp9589
g11
I00
S'\x00\x00\x00\x00\x00\x00\xf0?'
p9590
tp9591
bg1
(g2
(I0
tp9592
g4
tp9593
Rp9594
(I1
(I1
tp9595
g11
I00
S'\x15\xdb\xf8n\xf7L\xdf?'
p9596
tp9597
bg1
(g2
(I0
tp9598
g4
tp9599
Rp9600
(I1
(I1
tp9601
g11
I00
S'\xba\xa9dN4G\xdd?'
p9602
tp9603
btp9604
a(g1
(g2
(I0
tp9605
g4
tp9606
Rp9607
(I1
(I1
tp9608
g11
I00
S'\x00\x00\x00\x00\x00\x00\xf0?'
p9609
tp9610
bg1
(g2
(I0
tp9611
g4
tp9612
Rp9613
(I1
(I1
tp9614
g11
I00
S'\x16\x15"\xf5\xc4L\xdf?'
p9615
tp9616
bg1
(g2
(I0
tp9617
g4
tp9618
Rp9619
(I1
(I1
tp9620
g11
I00
S'\x8b)\xed\x86\x05G\xdd?'
p9621
tp9622
btp9623
a(g1
(g2
(I0
tp9624
g4
tp9625
Rp9626
(I1
(I1
tp9627
g11
I00
S'\x00\x00\x00\x00\x00\x00\xf0?'
p9628
tp9629
bg1
(g2
(I0
tp9630
g4
tp9631
Rp9632
(I1
(I1
tp9633
g11
I00
S'g\xb2th$M\xdf?'
p9634
tp9635
bg1
(g2
(I0
tp9636
g4
tp9637
Rp9638
(I1
(I1
tp9639
g11
I00
S'\xfe\x9a\xad\xfc]G\xdd?'
p9640
tp9641
btp9642
a(g1
(g2
(I0
tp9643
g4
tp9644
Rp9645
(I1
(I1
tp9646
g11
I00
S'\x00\x00\x00\x00\x00\x00\xf0?'
p9647
tp9648
bg1
(g2
(I0
tp9649
g4
tp9650
Rp9651
(I1
(I1
tp9652
g11
I00
S'\x9e\xfe\x9dj\xe8L\xdf?'
p9653
tp9654
bg1
(g2
(I0
tp9655
g4
tp9656
Rp9657
(I1
(I1
tp9658
g11
I00
S'\xd3\xa3\x96c&G\xdd?'
p9659
tp9660
btp9661
a(g1
(g2
(I0
tp9662
g4
tp9663
Rp9664
(I1
(I1
tp9665
g11
I00
S'\x00\x00\x00\x00\x00\x00\xf0?'
p9666
tp9667
bg1
(g2
(I0
tp9668
g4
tp9669
Rp9670
(I1
(I1
tp9671
g11
I00
S'\x8b`\x03\xb2\xe3L\xdf?'
p9672
tp9673
bg1
(g2
(I0
tp9674
g4
tp9675
Rp9676
(I1
(I1
tp9677
g11
I00
S'\xea\xfc\x7f\x03"G\xdd?'
p9678
tp9679
btp9680
a(g1
(g2
(I0
tp9681
g4
tp9682
Rp9683
(I1
(I1
tp9684
g11
I00
S'\x00\x00\x00\x00\x00\x00\xf0?'
p9685
tp9686
bg1
(g2
(I0
tp9687
g4
tp9688
Rp9689
(I1
(I1
tp9690
g11
I00
S'\xb5\r\xba\x85\xd5L\xdf?'
p9691
tp9692
bg1
(g2
(I0
tp9693
g4
tp9694
Rp9695
(I1
(I1
tp9696
g11
I00
S'\xb0f\xf1\xe0\x14G\xdd?'
p9697
tp9698
btp9699
a(g1
(g2
(I0
tp9700
g4
tp9701
Rp9702
(I1
(I1
tp9703
g11
I00
S'\x00\x00\x00\x00\x00\x00\xf0?'
p9704
tp9705
bg1
(g2
(I0
tp9706
g4
tp9707
Rp9708
(I1
(I1
tp9709
g11
I00
S'\xb6\xfa\xcf4\xebL\xdf?'
p9710
tp9711
bg1
(g2
(I0
tp9712
g4
tp9713
Rp9714
(I1
(I1
tp9715
g11
I00
S'<Mz\xf9(G\xdd?'
p9716
tp9717
btp9718
a(g1
(g2
(I0
tp9719
g4
tp9720
Rp9721
(I1
(I1
tp9722
g11
I00
S'\x00\x00\x00\x00\x00\x00\xf0?'
p9723
tp9724
bg1
(g2
(I0
tp9725
g4
tp9726
Rp9727
(I1
(I1
tp9728
g11
I00
S'`y\xa1\x82\xabL\xdf?'
p9729
tp9730
bg1
(g2
(I0
tp9731
g4
tp9732
Rp9733
(I1
(I1
tp9734
g11
I00
S'\xc7\x08\x8c\xf1\xedF\xdd?'
p9735
tp9736
btp9737
a(g1
(g2
(I0
tp9738
g4
tp9739
Rp9740
(I1
(I1
tp9741
g11
I00
S'\x00\x00\x00\x00\x00\x00\xf0?'
p9742
tp9743
bg1
(g2
(I0
tp9744
g4
tp9745
Rp9746
(I1
(I1
tp9747
g11
I00
S'\xf6V9y\x83L\xdf?'
p9748
tp9749
bg1
(g2
(I0
tp9750
g4
tp9751
Rp9752
(I1
(I1
tp9753
g11
I00
S'\xf5;\xd3\xd6\xc8F\xdd?'
p9754
tp9755
btp9756
a(g1
(g2
(I0
tp9757
g4
tp9758
Rp9759
(I1
(I1
tp9760
g11
I00
S'\x00\x00\x00\x00\x00\x00\xf0?'
p9761
tp9762
bg1
(g2
(I0
tp9763
g4
tp9764
Rp9765
(I1
(I1
tp9766
g11
I00
S'y;x\x95\xf6N\xdf?'
p9767
tp9768
bg1
(g2
(I0
tp9769
g4
tp9770
Rp9771
(I1
(I1
tp9772
g11
I00
S'\xedk6\x07\x0eI\xdd?'
p9773
tp9774
btp9775
a(g1
(g2
(I0
tp9776
g4
tp9777
Rp9778
(I1
(I1
tp9779
g11
I00
S'\x00\x00\x00\x00\x00\x00\xf0?'
p9780
tp9781
bg1
(g2
(I0
tp9782
g4
tp9783
Rp9784
(I1
(I1
tp9785
g11
I00
S'\xbf\x06<\xad\xa2M\xdf?'
p9786
tp9787
bg1
(g2
(I0
tp9788
g4
tp9789
Rp9790
(I1
(I1
tp9791
g11
I00
S't~D\x02\xd3G\xdd?'
p9792
tp9793
btp9794
a(g1
(g2
(I0
tp9795
g4
tp9796
Rp9797
(I1
(I1
tp9798
g11
I00
S'\x00\x00\x00\x00\x00\x00\xf0?'
p9799
tp9800
bg1
(g2
(I0
tp9801
g4
tp9802
Rp9803
(I1
(I1
tp9804
g11
I00
S'\x8c\x9c;>KM\xdf?'
p9805
tp9806
bg1
(g2
(I0
tp9807
g4
tp9808
Rp9809
(I1
(I1
tp9810
g11
I00
S'\xb8\xf6a\xfa\x81G\xdd?'
p9811
tp9812
btp9813
a(g1
(g2
(I0
tp9814
g4
tp9815
Rp9816
(I1
(I1
tp9817
g11
I00
S'\x00\x00\x00\x00\x00\x00\xf0?'
p9818
tp9819
bg1
(g2
(I0
tp9820
g4
tp9821
Rp9822
(I1
(I1
tp9823
g11
I00
S',\xc3\xd68\xadL\xdf?'
p9824
tp9825
bg1
(g2
(I0
tp9826
g4
tp9827
Rp9828
(I1
(I1
tp9829
g11
I00
S'P\x15\xa9\x87\xefF\xdd?'
p9830
tp9831
btp9832
a(g1
(g2
(I0
tp9833
g4
tp9834
Rp9835
(I1
(I1
tp9836
g11
I00
S'\x00\x00\x00\x00\x00\x00\xf0?'
p9837
tp9838
bg1
(g2
(I0
tp9839
g4
tp9840
Rp9841
(I1
(I1
tp9842
g11
I00
S'\x9b\x10\x86y\x86L\xdf?'
p9843
tp9844
bg1
(g2
(I0
tp9845
g4
tp9846
Rp9847
(I1
(I1
tp9848
g11
I00
S'\x9a;\xda\x9e\xcbF\xdd?'
p9849
tp9850
btp9851
a(g1
(g2
(I0
tp9852
g4
tp9853
Rp9854
(I1
(I1
tp9855
g11
I00
S'\x00\x00\x00\x00\x00\x00\xf0?'
p9856
tp9857
bg1
(g2
(I0
tp9858
g4
tp9859
Rp9860
(I1
(I1
tp9861
g11
I00
S'?\x1c\x9b\xd6\x8cL\xdf?'
p9862
tp9863
bg1
(g2
(I0
tp9864
g4
tp9865
Rp9866
(I1
(I1
tp9867
g11
I00
S'\xf6\xdb\x9d\x84\xd1F\xdd?'
p9868
tp9869
btp9870
a(g1
(g2
(I0
tp9871
g4
tp9872
Rp9873
(I1
(I1
tp9874
g11
I00
S'\x00\x00\x00\x00\x00\x00\xf0?'
p9875
tp9876
bg1
(g2
(I0
tp9877
g4
tp9878
Rp9879
(I1
(I1
tp9880
g11
I00
S'-\x84\xb6\x1f\xd3L\xdf?'
p9881
tp9882
bg1
(g2
(I0
tp9883
g4
tp9884
Rp9885
(I1
(I1
tp9886
g11
I00
S'\x06\x13\xe6\xa7\x12G\xdd?'
p9887
tp9888
btp9889
a(g1
(g2
(I0
tp9890
g4
tp9891
Rp9892
(I1
(I1
tp9893
g11
I00
S'\x00\x00\x00\x00\x00\x00\xf0?'
p9894
tp9895
bg1
(g2
(I0
tp9896
g4
tp9897
Rp9898
(I1
(I1
tp9899
g11
I00
S'\xa3\xccC\x8e\xa6L\xdf?'
p9900
tp9901
bg1
(g2
(I0
tp9902
g4
tp9903
Rp9904
(I1
(I1
tp9905
g11
I00
S'D\xcd\x13Z\xe9F\xdd?'
p9906
tp9907
btp9908
a(g1
(g2
(I0
tp9909
g4
tp9910
Rp9911
(I1
(I1
tp9912
g11
I00
S'\x00\x00\x00\x00\x00\x00\xf0?'
p9913
tp9914
bg1
(g2
(I0
tp9915
g4
tp9916
Rp9917
(I1
(I1
tp9918
g11
I00
S'\xc9 O\x93\xdeL\xdf?'
p9919
tp9920
bg1
(g2
(I0
tp9921
g4
tp9922
Rp9923
(I1
(I1
tp9924
g11
I00
S'\x06\r\xcaD\x1dG\xdd?'
p9925
tp9926
btp9927
a(g1
(g2
(I0
tp9928
g4
tp9929
Rp9930
(I1
(I1
tp9931
g11
I00
S'\x00\x00\x00\x00\x00\x00\xf0?'
p9932
tp9933
bg1
(g2
(I0
tp9934
g4
tp9935
Rp9936
(I1
(I1
tp9937
g11
I00
S'\xc0\xcbMO\x9aM\xdf?'
p9938
tp9939
bg1
(g2
(I0
tp9940
g4
tp9941
Rp9942
(I1
(I1
tp9943
g11
I00
S'\xfa\xe8/A\xcbG\xdd?'
p9944
tp9945
btp9946
a(g1
(g2
(I0
tp9947
g4
tp9948
Rp9949
(I1
(I1
tp9950
g11
I00
S'\x00\x00\x00\x00\x00\x00\xf0?'
p9951
tp9952
bg1
(g2
(I0
tp9953
g4
tp9954
Rp9955
(I1
(I1
tp9956
g11
I00
S'\x81\xa6\xd0\x92eM\xdf?'
p9957
tp9958
bg1
(g2
(I0
tp9959
g4
tp9960
Rp9961
(I1
(I1
tp9962
g11
I00
S'\x90\xb3Va\x9aG\xdd?'
p9963
tp9964
btp9965
a(g1
(g2
(I0
tp9966
g4
tp9967
Rp9968
(I1
(I1
tp9969
g11
I00
S'\x00\x00\x00\x00\x00\x00\xf0?'
p9970
tp9971
bg1
(g2
(I0
tp9972
g4
tp9973
Rp9974
(I1
(I1
tp9975
g11
I00
S'c~"\xa7\xc9L\xdf?'
p9976
tp9977
bg1
(g2
(I0
tp9978
g4
tp9979
Rp9980
(I1
(I1
tp9981
g11
I00
S'\xf3\xe9\xe4\xe0\tG\xdd?'
p9982
tp9983
btp9984
a(g1
(g2
(I0
tp9985
g4
tp9986
Rp9987
(I1
(I1
tp9988
g11
I00
S'\x00\x00\x00\x00\x00\x00\xf0?'
p9989
tp9990
bg1
(g2
(I0
tp9991
g4
tp9992
Rp9993
(I1
(I1
tp9994
g11
I00
S'\x96`\xf9\x84\xa0L\xdf?'
p9995
tp9996
bg1
(g2
(I0
tp9997
g4
tp9998
Rp9999
(I1
(I1
tp10000
g11
I00
S'[.\xf7\xc1\xe3F\xdd?'
p10001
tp10002
btp10003
a(g1
(g2
(I0
tp10004
g4
tp10005
Rp10006
(I1
(I1
tp10007
g11
I00
S'\x00\x00\x00\x00\x00\x00\xf0?'
p10008
tp10009
bg1
(g2
(I0
tp10010
g4
tp10011
Rp10012
(I1
(I1
tp10013
g11
I00
S'\x89 f\x00\xa3L\xdf?'
p10014
tp10015
bg1
(g2
(I0
tp10016
g4
tp10017
Rp10018
(I1
(I1
tp10019
g11
I00
S'\x8a\xdd\xd9\x0e\xe6F\xdd?'
p10020
tp10021
btp10022
a(g1
(g2
(I0
tp10023
g4
tp10024
Rp10025
(I1
(I1
tp10026
g11
I00
S'\x00\x00\x00\x00\x00\x00\xf0?'
p10027
tp10028
bg1
(g2
(I0
tp10029
g4
tp10030
Rp10031
(I1
(I1
tp10032
g11
I00
S'\xad\x97=\x91\x8dL\xdf?'
p10033
tp10034
bg1
(g2
(I0
tp10035
g4
tp10036
Rp10037
(I1
(I1
tp10038
g11
I00
S'M\xef\x941\xd2F\xdd?'
p10039
tp10040
btp10041
a(g1
(g2
(I0
tp10042
g4
tp10043
Rp10044
(I1
(I1
tp10045
g11
I00
S'\x00\x00\x00\x00\x00\x00\xf0?'
p10046
tp10047
bg1
(g2
(I0
tp10048
g4
tp10049
Rp10050
(I1
(I1
tp10051
g11
I00
S'\xdbud\xfe\xe4L\xdf?'
p10052
tp10053
bg1
(g2
(I0
tp10054
g4
tp10055
Rp10056
(I1
(I1
tp10057
g11
I00
S'\xb5S\x897#G\xdd?'
p10058
tp10059
btp10060
a(g1
(g2
(I0
tp10061
g4
tp10062
Rp10063
(I1
(I1
tp10064
g11
I00
S'\x00\x00\x00\x00\x00\x00\xf0?'
p10065
tp10066
bg1
(g2
(I0
tp10067
g4
tp10068
Rp10069
(I1
(I1
tp10070
g11
I00
S'\xb5\xf3\xcc\xd4\x9cL\xdf?'
p10071
tp10072
bg1
(g2
(I0
tp10073
g4
tp10074
Rp10075
(I1
(I1
tp10076
g11
I00
S'D\xd3\xf1V\xe0F\xdd?'
p10077
tp10078
btp10079
a(g1
(g2
(I0
tp10080
g4
tp10081
Rp10082
(I1
(I1
tp10083
g11
I00
S'\x00\x00\x00\x00\x00\x00\xf0?'
p10084
tp10085
bg1
(g2
(I0
tp10086
g4
tp10087
Rp10088
(I1
(I1
tp10089
g11
I00
S'r\x8eK\xf6EO\xdf?'
p10090
tp10091
bg1
(g2
(I0
tp10092
g4
tp10093
Rp10094
(I1
(I1
tp10095
g11
I00
S'+|_\x98WI\xdd?'
p10096
tp10097
btp10098
a(g1
(g2
(I0
tp10099
g4
tp10100
Rp10101
(I1
(I1
tp10102
g11
I00
S'\x00\x00\x00\x00\x00\x00\xf0?'
p10103
tp10104
bg1
(g2
(I0
tp10105
g4
tp10106
Rp10107
(I1
(I1
tp10108
g11
I00
S'\x04!\xda\xca\xa3L\xdf?'
p10109
tp10110
bg1
(g2
(I0
tp10111
g4
tp10112
Rp10113
(I1
(I1
tp10114
g11
I00
S'I\xecy\xca\xe6F\xdd?'
p10115
tp10116
btp10117
a(g1
(g2
(I0
tp10118
g4
tp10119
Rp10120
(I1
(I1
tp10121
g11
I00
S'\x00\x00\x00\x00\x00\x00\xf0?'
p10122
tp10123
bg1
(g2
(I0
tp10124
g4
tp10125
Rp10126
(I1
(I1
tp10127
g11
I00
S'\xb2pCE8M\xdf?'
p10128
tp10129
bg1
(g2
(I0
tp10130
g4
tp10131
Rp10132
(I1
(I1
tp10133
g11
I00
S'\x88\xb5\x1aepG\xdd?'
p10134
tp10135
btp10136
a(g1
(g2
(I0
tp10137
g4
tp10138
Rp10139
(I1
(I1
tp10140
g11
I00
S'\x00\x00\x00\x00\x00\x00\xf0?'
p10141
tp10142
bg1
(g2
(I0
tp10143
g4
tp10144
Rp10145
(I1
(I1
tp10146
g11
I00
S'\x9bqr\xa1\xd5L\xdf?'
p10147
tp10148
bg1
(g2
(I0
tp10149
g4
tp10150
Rp10151
(I1
(I1
tp10152
g11
I00
S'\xbc\x0f\xa2\xfa\x14G\xdd?'
p10153
tp10154
btp10155
a(g1
(g2
(I0
tp10156
g4
tp10157
Rp10158
(I1
(I1
tp10159
g11
I00
S'\x00\x00\x00\x00\x00\x00\xf0?'
p10160
tp10161
bg1
(g2
(I0
tp10162
g4
tp10163
Rp10164
(I1
(I1
tp10165
g11
I00
S']`E?nL\xdf?'
p10166
tp10167
bg1
(g2
(I0
tp10168
g4
tp10169
Rp10170
(I1
(I1
tp10171
g11
I00
S'\xd5\x80\xdf*\xb5F\xdd?'
p10172
tp10173
btp10174
a(g1
(g2
(I0
tp10175
g4
tp10176
Rp10177
(I1
(I1
tp10178
g11
I00
S'\x00\x00\x00\x00\x00\x00\xf0?'
p10179
tp10180
bg1
(g2
(I0
tp10181
g4
tp10182
Rp10183
(I1
(I1
tp10184
g11
I00
S'\x973M\xa0\xe8N\xdf?'
p10185
tp10186
bg1
(g2
(I0
tp10187
g4
tp10188
Rp10189
(I1
(I1
tp10190
g11
I00
S'\xac\x01\xa4\x17\x01I\xdd?'
p10191
tp10192
btp10193
a(g1
(g2
(I0
tp10194
g4
tp10195
Rp10196
(I1
(I1
tp10197
g11
I00
S'\x00\x00\x00\x00\x00\x00\xf0?'
p10198
tp10199
bg1
(g2
(I0
tp10200
g4
tp10201
Rp10202
(I1
(I1
tp10203
g11
I00
S'\xe1f\xbc\xc3\xe6L\xdf?'
p10204
tp10205
bg1
(g2
(I0
tp10206
g4
tp10207
Rp10208
(I1
(I1
tp10209
g11
I00
S'\x10\x96\xad\xdb$G\xdd?'
p10210
tp10211
btp10212
a(g1
(g2
(I0
tp10213
g4
tp10214
Rp10215
(I1
(I1
tp10216
g11
I00
S'\x00\x00\x00\x00\x00\x00\xf0?'
p10217
tp10218
bg1
(g2
(I0
tp10219
g4
tp10220
Rp10221
(I1
(I1
tp10222
g11
I00
S'\xb9%K\x7frL\xdf?'
p10223
tp10224
bg1
(g2
(I0
tp10225
g4
tp10226
Rp10227
(I1
(I1
tp10228
g11
I00
S'{h4\x1b\xb9F\xdd?'
p10229
tp10230
btp10231
a(g1
(g2
(I0
tp10232
g4
tp10233
Rp10234
(I1
(I1
tp10235
g11
I00
S'\x00\x00\x00\x00\x00\x00\xf0?'
p10236
tp10237
bg1
(g2
(I0
tp10238
g4
tp10239
Rp10240
(I1
(I1
tp10241
g11
I00
S'\x8f\x08\xa7\xd9\xd0L\xdf?'
p10242
tp10243
bg1
(g2
(I0
tp10244
g4
tp10245
Rp10246
(I1
(I1
tp10247
g11
I00
S'\x17\xb9w\x8c\x10G\xdd?'
p10248
tp10249
btp10250
a(g1
(g2
(I0
tp10251
g4
tp10252
Rp10253
(I1
(I1
tp10254
g11
I00
S'\x00\x00\x00\x00\x00\x00\xf0?'
p10255
tp10256
bg1
(g2
(I0
tp10257
g4
tp10258
Rp10259
(I1
(I1
tp10260
g11
I00
S'kYB\xab\xdbL\xdf?'
p10261
tp10262
bg1
(g2
(I0
tp10263
g4
tp10264
Rp10265
(I1
(I1
tp10266
g11
I00
S'<u;\x93\x1aG\xdd?'
p10267
tp10268
btp10269
a(g1
(g2
(I0
tp10270
g4
tp10271
Rp10272
(I1
(I1
tp10273
g11
I00
S'\x00\x00\x00\x00\x00\x00\xf0?'
p10274
tp10275
bg1
(g2
(I0
tp10276
g4
tp10277
Rp10278
(I1
(I1
tp10279
g11
I00
S'\xfb\x16TS\x98L\xdf?'
p10280
tp10281
bg1
(g2
(I0
tp10282
g4
tp10283
Rp10284
(I1
(I1
tp10285
g11
I00
S'\xcff\xf4)\xdcF\xdd?'
p10286
tp10287
btp10288
a(g1
(g2
(I0
tp10289
g4
tp10290
Rp10291
(I1
(I1
tp10292
g11
I00
S'\x00\x00\x00\x00\x00\x00\xf0?'
p10293
tp10294
bg1
(g2
(I0
tp10295
g4
tp10296
Rp10297
(I1
(I1
tp10298
g11
I00
S'\xd4E\x9f\x8c\xd4L\xdf?'
p10299
tp10300
bg1
(g2
(I0
tp10301
g4
tp10302
Rp10303
(I1
(I1
tp10304
g11
I00
S'b\x1b\x15\xfa\x13G\xdd?'
p10305
tp10306
btp10307
a(g1
(g2
(I0
tp10308
g4
tp10309
Rp10310
(I1
(I1
tp10311
g11
I00
S'\x00\x00\x00\x00\x00\x00\xf0?'
p10312
tp10313
bg1
(g2
(I0
tp10314
g4
tp10315
Rp10316
(I1
(I1
tp10317
g11
I00
S'\x93\xf0L\x1e\xd5L\xdf?'
p10318
tp10319
bg1
(g2
(I0
tp10320
g4
tp10321
Rp10322
(I1
(I1
tp10323
g11
I00
S'ro\x17\x81\x14G\xdd?'
p10324
tp10325
btp10326
a(g1
(g2
(I0
tp10327
g4
tp10328
Rp10329
(I1
(I1
tp10330
g11
I00
S'\x00\x00\x00\x00\x00\x00\xf0?'
p10331
tp10332
bg1
(g2
(I0
tp10333
g4
tp10334
Rp10335
(I1
(I1
tp10336
g11
I00
S'!\xc1G\x9d{M\xdf?'
p10337
tp10338
bg1
(g2
(I0
tp10339
g4
tp10340
Rp10341
(I1
(I1
tp10342
g11
I00
S'\x96\x1a\x9a\xce\xaeG\xdd?'
p10343
tp10344
btp10345
a(g1
(g2
(I0
tp10346
g4
tp10347
Rp10348
(I1
(I1
tp10349
g11
I00
S'\x00\x00\x00\x00\x00\x00\xf0?'
p10350
tp10351
bg1
(g2
(I0
tp10352
g4
tp10353
Rp10354
(I1
(I1
tp10355
g11
I00
S'\x8a\x8e\x0e\xdcSM\xdf?'
p10356
tp10357
bg1
(g2
(I0
tp10358
g4
tp10359
Rp10360
(I1
(I1
tp10361
g11
I00
S'\x088\xab\xf6\x89G\xdd?'
p10362
tp10363
btp10364
a(g1
(g2
(I0
tp10365
g4
tp10366
Rp10367
(I1
(I1
tp10368
g11
I00
S'\x00\x00\x00\x00\x00\x00\xf0?'
p10369
tp10370
bg1
(g2
(I0
tp10371
g4
tp10372
Rp10373
(I1
(I1
tp10374
g11
I00
S'\xc1\xde{\xae\xfaL\xdf?'
p10375
tp10376
bg1
(g2
(I0
tp10377
g4
tp10378
Rp10379
(I1
(I1
tp10380
g11
I00
S'\xe6\xf8\x01Q7G\xdd?'
p10381
tp10382
btp10383
a(g1
(g2
(I0
tp10384
g4
tp10385
Rp10386
(I1
(I1
tp10387
g11
I00
S'\x00\x00\x00\x00\x00\x00\xf0?'
p10388
tp10389
bg1
(g2
(I0
tp10390
g4
tp10391
Rp10392
(I1
(I1
tp10393
g11
I00
S'\xff\x974\xb4\xc2L\xdf?'
p10394
tp10395
bg1
(g2
(I0
tp10396
g4
tp10397
Rp10398
(I1
(I1
tp10399
g11
I00
S'\x17\xad@p\x03G\xdd?'
p10400
tp10401
btp10402
a(g1
(g2
(I0
tp10403
g4
tp10404
Rp10405
(I1
(I1
tp10406
g11
I00
S'\x00\x00\x00\x00\x00\x00\xf0?'
p10407
tp10408
bg1
(g2
(I0
tp10409
g4
tp10410
Rp10411
(I1
(I1
tp10412
g11
I00
S'\xc9\xb4\xd0\xc2\x88M\xdf?'
p10413
tp10414
bg1
(g2
(I0
tp10415
g4
tp10416
Rp10417
(I1
(I1
tp10418
g11
I00
S'\x94\xe6\xad\xfd\xbaG\xdd?'
p10419
tp10420
btp10421
a(g1
(g2
(I0
tp10422
g4
tp10423
Rp10424
(I1
(I1
tp10425
g11
I00
S'\x00\x00\x00\x00\x00\x00\xf0?'
p10426
tp10427
bg1
(g2
(I0
tp10428
g4
tp10429
Rp10430
(I1
(I1
tp10431
g11
I00
S'\xa6kd\xb0\xe5L\xdf?'
p10432
tp10433
bg1
(g2
(I0
tp10434
g4
tp10435
Rp10436
(I1
(I1
tp10437
g11
I00
S'\x0f\xfd\x7f\xdc#G\xdd?'
p10438
tp10439
btp10440
a(g1
(g2
(I0
tp10441
g4
tp10442
Rp10443
(I1
(I1
tp10444
g11
I00
S'\x00\x00\x00\x00\x00\x00\xf0?'
p10445
tp10446
bg1
(g2
(I0
tp10447
g4
tp10448
Rp10449
(I1
(I1
tp10450
g11
I00
S'<P\x010\x8dL\xdf?'
p10451
tp10452
bg1
(g2
(I0
tp10453
g4
tp10454
Rp10455
(I1
(I1
tp10456
g11
I00
S'\xd9\xd2w\xd7\xd1F\xdd?'
p10457
tp10458
btp10459
a(g1
(g2
(I0
tp10460
g4
tp10461
Rp10462
(I1
(I1
tp10463
g11
I00
S'\x00\x00\x00\x00\x00\x00\xf0?'
p10464
tp10465
bg1
(g2
(I0
tp10466
g4
tp10467
Rp10468
(I1
(I1
tp10469
g11
I00
S'\xc24\xe1\xcd\x82M\xdf?'
p10470
tp10471
bg1
(g2
(I0
tp10472
g4
tp10473
Rp10474
(I1
(I1
tp10475
g11
I00
S'`\x0ejx\xb5G\xdd?'
p10476
tp10477
btp10478
a(g1
(g2
(I0
tp10479
g4
tp10480
Rp10481
(I1
(I1
tp10482
g11
I00
S'\x00\x00\x00\x00\x00\x00\xf0?'
p10483
tp10484
bg1
(g2
(I0
tp10485
g4
tp10486
Rp10487
(I1
(I1
tp10488
g11
I00
S'\xb7\xe9A\xa5\x93M\xdf?'
p10489
tp10490
bg1
(g2
(I0
tp10491
g4
tp10492
Rp10493
(I1
(I1
tp10494
g11
I00
S'\x9e\x8c\x12\x14\xc5G\xdd?'
p10495
tp10496
btp10497
a(g1
(g2
(I0
tp10498
g4
tp10499
Rp10500
(I1
(I1
tp10501
g11
I00
S'\x00\x00\x00\x00\x00\x00\xf0?'
p10502
tp10503
bg1
(g2
(I0
tp10504
g4
tp10505
Rp10506
(I1
(I1
tp10507
g11
I00
S'\x89\x0c\x06\x88\xeaL\xdf?'
p10508
tp10509
bg1
(g2
(I0
tp10510
g4
tp10511
Rp10512
(I1
(I1
tp10513
g11
I00
S'\xbf\xf4WY(G\xdd?'
p10514
tp10515
btp10516
a(g1
(g2
(I0
tp10517
g4
tp10518
Rp10519
(I1
(I1
tp10520
g11
I00
S'\x00\x00\x00\x00\x00\x00\xf0?'
p10521
tp10522
bg1
(g2
(I0
tp10523
g4
tp10524
Rp10525
(I1
(I1
tp10526
g11
I00
S'\x95\x04\xd8\x8dsN\xdf?'
p10527
tp10528
bg1
(g2
(I0
tp10529
g4
tp10530
Rp10531
(I1
(I1
tp10532
g11
I00
S'\xc0:u\x97\x94H\xdd?'
p10533
tp10534
btp10535
a(g1
(g2
(I0
tp10536
g4
tp10537
Rp10538
(I1
(I1
tp10539
g11
I00
S'\x00\x00\x00\x00\x00\x00\xf0?'
p10540
tp10541
bg1
(g2
(I0
tp10542
g4
tp10543
Rp10544
(I1
(I1
tp10545
g11
I00
S'\xa4wf\xd9\xd6L\xdf?'
p10546
tp10547
bg1
(g2
(I0
tp10548
g4
tp10549
Rp10550
(I1
(I1
tp10551
g11
I00
S'\xb0?\xbd\x1b\x16G\xdd?'
p10552
tp10553
btp10554
a(g1
(g2
(I0
tp10555
g4
tp10556
Rp10557
(I1
(I1
tp10558
g11
I00
S'\x00\x00\x00\x00\x00\x00\xf0?'
p10559
tp10560
bg1
(g2
(I0
tp10561
g4
tp10562
Rp10563
(I1
(I1
tp10564
g11
I00
S'~\x9d\x11\x83\x95L\xdf?'
p10565
tp10566
bg1
(g2
(I0
tp10567
g4
tp10568
Rp10569
(I1
(I1
tp10570
g11
I00
S'S\xbar\x8e\xd9F\xdd?'
p10571
tp10572
btp10573
a(g1
(g2
(I0
tp10574
g4
tp10575
Rp10576
(I1
(I1
tp10577
g11
I00
S'\x00\x00\x00\x00\x00\x00\xf0?'
p10578
tp10579
bg1
(g2
(I0
tp10580
g4
tp10581
Rp10582
(I1
(I1
tp10583
g11
I00
S'\x7fS\xa0^\xabL\xdf?'
p10584
tp10585
bg1
(g2
(I0
tp10586
g4
tp10587
Rp10588
(I1
(I1
tp10589
g11
I00
S'\x15\xf5-\xd0\xedF\xdd?'
p10590
tp10591
btp10592
a(g1
(g2
(I0
tp10593
g4
tp10594
Rp10595
(I1
(I1
tp10596
g11
I00
S'\x00\x00\x00\x00\x00\x00\xf0?'
p10597
tp10598
bg1
(g2
(I0
tp10599
g4
tp10600
Rp10601
(I1
(I1
tp10602
g11
I00
S'\x96\x0cL\x06\xc4L\xdf?'
p10603
tp10604
bg1
(g2
(I0
tp10605
g4
tp10606
Rp10607
(I1
(I1
tp10608
g11
I00
S'!$\x95\xa9\x04G\xdd?'
p10609
tp10610
btp10611
a(g1
(g2
(I0
tp10612
g4
tp10613
Rp10614
(I1
(I1
tp10615
g11
I00
S'\x00\x00\x00\x00\x00\x00\xf0?'
p10616
tp10617
bg1
(g2
(I0
tp10618
g4
tp10619
Rp10620
(I1
(I1
tp10621
g11
I00
S'T\xe4\xe0\xd5\xefL\xdf?'
p10622
tp10623
bg1
(g2
(I0
tp10624
g4
tp10625
Rp10626
(I1
(I1
tp10627
g11
I00
S'[\xac\xc0C-G\xdd?'
p10628
tp10629
btp10630
a(g1
(g2
(I0
tp10631
g4
tp10632
Rp10633
(I1
(I1
tp10634
g11
I00
S'\x00\x00\x00\x00\x00\x00\xf0?'
p10635
tp10636
bg1
(g2
(I0
tp10637
g4
tp10638
Rp10639
(I1
(I1
tp10640
g11
I00
S'>/iC\x97L\xdf?'
p10641
tp10642
bg1
(g2
(I0
tp10643
g4
tp10644
Rp10645
(I1
(I1
tp10646
g11
I00
S',\xec\xf3-\xdbF\xdd?'
p10647
tp10648
btp10649
a(g1
(g2
(I0
tp10650
g4
tp10651
Rp10652
(I1
(I1
tp10653
g11
I00
S'\x00\x00\x00\x00\x00\x00\xf0?'
p10654
tp10655
bg1
(g2
(I0
tp10656
g4
tp10657
Rp10658
(I1
(I1
tp10659
g11
I00
S'K\x81\xe7\xd1fM\xdf?'
p10660
tp10661
bg1
(g2
(I0
tp10662
g4
tp10663
Rp10664
(I1
(I1
tp10665
g11
I00
S'\xf4\x85\x0f\x89\x9bG\xdd?'
p10666
tp10667
btp10668
a(g1
(g2
(I0
tp10669
g4
tp10670
Rp10671
(I1
(I1
tp10672
g11
I00
S'\x00\x00\x00\x00\x00\x00\xf0?'
p10673
tp10674
bg1
(g2
(I0
tp10675
g4
tp10676
Rp10677
(I1
(I1
tp10678
g11
I00
S'/\x90\x08\x14\x8aL\xdf?'
p10679
tp10680
bg1
(g2
(I0
tp10681
g4
tp10682
Rp10683
(I1
(I1
tp10684
g11
I00
S'\x99\x95\xcb\xf5\xceF\xdd?'
p10685
tp10686
btp10687
a(g1
(g2
(I0
tp10688
g4
tp10689
Rp10690
(I1
(I1
tp10691
g11
I00
S'\x00\x00\x00\x00\x00\x00\xf0?'
p10692
tp10693
bg1
(g2
(I0
tp10694
g4
tp10695
Rp10696
(I1
(I1
tp10697
g11
I00
S'+\x1eX\xd7aL\xdf?'
p10698
tp10699
bg1
(g2
(I0
tp10700
g4
tp10701
Rp10702
(I1
(I1
tp10703
g11
I00
S'\xaa\x82\x90\xab\xa9F\xdd?'
p10704
tp10705
btp10706
a(g1
(g2
(I0
tp10707
g4
tp10708
Rp10709
(I1
(I1
tp10710
g11
I00
S'\x00\x00\x00\x00\x00\x00\xf0?'
p10711
tp10712
bg1
(g2
(I0
tp10713
g4
tp10714
Rp10715
(I1
(I1
tp10716
g11
I00
S'\xaa\xea\xbc"\x9cL\xdf?'
p10717
tp10718
bg1
(g2
(I0
tp10719
g4
tp10720
Rp10721
(I1
(I1
tp10722
g11
I00
S'Jo\xec\xb1\xdfF\xdd?'
p10723
tp10724
btp10725
a(g1
(g2
(I0
tp10726
g4
tp10727
Rp10728
(I1
(I1
tp10729
g11
I00
S'\x00\x00\x00\x00\x00\x00\xf0?'
p10730
tp10731
bg1
(g2
(I0
tp10732
g4
tp10733
Rp10734
(I1
(I1
tp10735
g11
I00
S'O\xb2~(\xa8L\xdf?'
p10736
tp10737
bg1
(g2
(I0
tp10738
g4
tp10739
Rp10740
(I1
(I1
tp10741
g11
I00
S'\xfd\x02C\xd6\xeaF\xdd?'
p10742
tp10743
btp10744
a(g1
(g2
(I0
tp10745
g4
tp10746
Rp10747
(I1
(I1
tp10748
g11
I00
S'\x00\x00\x00\x00\x00\x00\xf0?'
p10749
tp10750
bg1
(g2
(I0
tp10751
g4
tp10752
Rp10753
(I1
(I1
tp10754
g11
I00
S'\x0e\x99YR\x1dM\xdf?'
p10755
tp10756
bg1
(g2
(I0
tp10757
g4
tp10758
Rp10759
(I1
(I1
tp10760
g11
I00
S'\xfa\x8fmkWG\xdd?'
p10761
tp10762
btp10763
a(g1
(g2
(I0
tp10764
g4
tp10765
Rp10766
(I1
(I1
tp10767
g11
I00
S'\x00\x00\x00\x00\x00\x00\xf0?'
p10768
tp10769
bg1
(g2
(I0
tp10770
g4
tp10771
Rp10772
(I1
(I1
tp10773
g11
I00
S'=\xc2-\xf9\xe5L\xdf?'
p10774
tp10775
bg1
(g2
(I0
tp10776
g4
tp10777
Rp10778
(I1
(I1
tp10779
g11
I00
S't\xa9\xf4\x1f$G\xdd?'
p10780
tp10781
btp10782
a(g1
(g2
(I0
tp10783
g4
tp10784
Rp10785
(I1
(I1
tp10786
g11
I00
S'\x00\x00\x00\x00\x00\x00\xf0?'
p10787
tp10788
bg1
(g2
(I0
tp10789
g4
tp10790
Rp10791
(I1
(I1
tp10792
g11
I00
S'\xc8\xaaL"\x8dL\xdf?'
p10793
tp10794
bg1
(g2
(I0
tp10795
g4
tp10796
Rp10797
(I1
(I1
tp10798
g11
I00
S'\x9f(\xc4\xca\xd1F\xdd?'
p10799
tp10800
btp10801
a(g1
(g2
(I0
tp10802
g4
tp10803
Rp10804
(I1
(I1
tp10805
g11
I00
S'\x00\x00\x00\x00\x00\x00\xf0?'
p10806
tp10807
bg1
(g2
(I0
tp10808
g4
tp10809
Rp10810
(I1
(I1
tp10811
g11
I00
S'y\x8bF%nL\xdf?'
p10812
tp10813
bg1
(g2
(I0
tp10814
g4
tp10815
Rp10816
(I1
(I1
tp10817
g11
I00
S'\xee\x18\xc8\x12\xb5F\xdd?'
p10818
tp10819
btp10820
a(g1
(g2
(I0
tp10821
g4
tp10822
Rp10823
(I1
(I1
tp10824
g11
I00
S'\x00\x00\x00\x00\x00\x00\xf0?'
p10825
tp10826
bg1
(g2
(I0
tp10827
g4
tp10828
Rp10829
(I1
(I1
tp10830
g11
I00
S'\x8a\xdf\x85I\xf6L\xdf?'
p10831
tp10832
bg1
(g2
(I0
tp10833
g4
tp10834
Rp10835
(I1
(I1
tp10836
g11
I00
S'2uo>3G\xdd?'
p10837
tp10838
btp10839
a(g1
(g2
(I0
tp10840
g4
tp10841
Rp10842
(I1
(I1
tp10843
g11
I00
S'\x00\x00\x00\x00\x00\x00\xf0?'
p10844
tp10845
bg1
(g2
(I0
tp10846
g4
tp10847
Rp10848
(I1
(I1
tp10849
g11
I00
S'\xbc\xdf\xb7y\x94L\xdf?'
p10850
tp10851
bg1
(g2
(I0
tp10852
g4
tp10853
Rp10854
(I1
(I1
tp10855
g11
I00
S'\x84J\x88\x98\xd8F\xdd?'
p10856
tp10857
btp10858
a(g1
(g2
(I0
tp10859
g4
tp10860
Rp10861
(I1
(I1
tp10862
g11
I00
S'\x00\x00\x00\x00\x00\x00\xf0?'
p10863
tp10864
bg1
(g2
(I0
tp10865
g4
tp10866
Rp10867
(I1
(I1
tp10868
g11
I00
S'\x0c|\xe7\xad\xd2L\xdf?'
p10869
tp10870
bg1
(g2
(I0
tp10871
g4
tp10872
Rp10873
(I1
(I1
tp10874
g11
I00
S'?\xdbl>\x12G\xdd?'
p10875
tp10876
btp10877
a(g1
(g2
(I0
tp10878
g4
tp10879
Rp10880
(I1
(I1
tp10881
g11
I00
S'\x00\x00\x00\x00\x00\x00\xf0?'
p10882
tp10883
bg1
(g2
(I0
tp10884
g4
tp10885
Rp10886
(I1
(I1
tp10887
g11
I00
S'\x8f0)\x87kL\xdf?'
p10888
tp10889
bg1
(g2
(I0
tp10890
g4
tp10891
Rp10892
(I1
(I1
tp10893
g11
I00
S'8\xb2\xbf\xa5\xb2F\xdd?'
p10894
tp10895
btp10896
a(g1
(g2
(I0
tp10897
g4
tp10898
Rp10899
(I1
(I1
tp10900
g11
I00
S'\x00\x00\x00\x00\x00\x00\xf0?'
p10901
tp10902
bg1
(g2
(I0
tp10903
g4
tp10904
Rp10905
(I1
(I1
tp10906
g11
I00
S')\xec\xeaW\xd1L\xdf?'
p10907
tp10908
bg1
(g2
(I0
tp10909
g4
tp10910
Rp10911
(I1
(I1
tp10912
g11
I00
S'K?|\x01\x11G\xdd?'
p10913
tp10914
btp10915
a(g1
(g2
(I0
tp10916
g4
tp10917
Rp10918
(I1
(I1
tp10919
g11
I00
S'\x00\x00\x00\x00\x00\x00\xf0?'
p10920
tp10921
bg1
(g2
(I0
tp10922
g4
tp10923
Rp10924
(I1
(I1
tp10925
g11
I00
S'\x0b\xfa/\x81\xa4L\xdf?'
p10926
tp10927
bg1
(g2
(I0
tp10928
g4
tp10929
Rp10930
(I1
(I1
tp10931
g11
I00
S'\x1d\x08us\xe7F\xdd?'
p10932
tp10933
btp10934
a(g1
(g2
(I0
tp10935
g4
tp10936
Rp10937
(I1
(I1
tp10938
g11
I00
S'\x00\x00\x00\x00\x00\x00\xf0?'
p10939
tp10940
bg1
(g2
(I0
tp10941
g4
tp10942
Rp10943
(I1
(I1
tp10944
g11
I00
S'{\xe6S\xf0\x9eL\xdf?'
p10945
tp10946
bg1
(g2
(I0
tp10947
g4
tp10948
Rp10949
(I1
(I1
tp10950
g11
I00
S'L\xbd\xf4J\xe2F\xdd?'
p10951
tp10952
btp10953
a(g1
(g2
(I0
tp10954
g4
tp10955
Rp10956
(I1
(I1
tp10957
g11
I00
S'\x00\x00\x00\x00\x00\x00\xf0?'
p10958
tp10959
bg1
(g2
(I0
tp10960
g4
tp10961
Rp10962
(I1
(I1
tp10963
g11
I00
S'\xea\xca\x0b=uL\xdf?'
p10964
tp10965
bg1
(g2
(I0
tp10966
g4
tp10967
Rp10968
(I1
(I1
tp10969
g11
I00
S'\x8a\xf0\x8e\xa5\xbbF\xdd?'
p10970
tp10971
btp10972
a(g1
(g2
(I0
tp10973
g4
tp10974
Rp10975
(I1
(I1
tp10976
g11
I00
S'\x00\x00\x00\x00\x00\x00\xf0?'
p10977
tp10978
bg1
(g2
(I0
tp10979
g4
tp10980
Rp10981
(I1
(I1
tp10982
g11
I00
S'K.\x9a\x14\x98L\xdf?'
p10983
tp10984
bg1
(g2
(I0
tp10985
g4
tp10986
Rp10987
(I1
(I1
tp10988
g11
I00
S'\x1f\x9a\xd2\xef\xdbF\xdd?'
p10989
tp10990
btp10991
a(g1
(g2
(I0
tp10992
g4
tp10993
Rp10994
(I1
(I1
tp10995
g11
I00
S'\x00\x00\x00\x00\x00\x00\xf0?'
p10996
tp10997
bg1
(g2
(I0
tp10998
g4
tp10999
Rp11000
(I1
(I1
tp11001
g11
I00
S'\xf20\x00:\x82M\xdf?'
p11002
tp11003
bg1
(g2
(I0
tp11004
g4
tp11005
Rp11006
(I1
(I1
tp11007
g11
I00
S'\xe9M]\xef\xb4G\xdd?'
p11008
tp11009
btp11010
a(g1
(g2
(I0
tp11011
g4
tp11012
Rp11013
(I1
(I1
tp11014
g11
I00
S'\x00\x00\x00\x00\x00\x00\xf0?'
p11015
tp11016
bg1
(g2
(I0
tp11017
g4
tp11018
Rp11019
(I1
(I1
tp11020
g11
I00
S'\xcaj\x99\xac\xe8L\xdf?'
p11021
tp11022
bg1
(g2
(I0
tp11023
g4
tp11024
Rp11025
(I1
(I1
tp11026
g11
I00
S'^\xf9\xbc\xa0&G\xdd?'
p11027
tp11028
btp11029
a(g1
(g2
(I0
tp11030
g4
tp11031
Rp11032
(I1
(I1
tp11033
g11
I00
S'\x00\x00\x00\x00\x00\x00\xf0?'
p11034
tp11035
bg1
(g2
(I0
tp11036
g4
tp11037
Rp11038
(I1
(I1
tp11039
g11
I00
S'\x0f\x8aC[DM\xdf?'
p11040
tp11041
bg1
(g2
(I0
tp11042
g4
tp11043
Rp11044
(I1
(I1
tp11045
g11
I00
S'\xc8U\x85\x98{G\xdd?'
p11046
tp11047
btp11048
a(g1
(g2
(I0
tp11049
g4
tp11050
Rp11051
(I1
(I1
tp11052
g11
I00
S'\x00\x00\x00\x00\x00\x00\xf0?'
p11053
tp11054
bg1
(g2
(I0
tp11055
g4
tp11056
Rp11057
(I1
(I1
tp11058
g11
I00
S'\xb9Y\xb7n\xe8L\xdf?'
p11059
tp11060
bg1
(g2
(I0
tp11061
g4
tp11062
Rp11063
(I1
(I1
tp11064
g11
I00
S'\xb8$cg&G\xdd?'
p11065
tp11066
btp11067
a(g1
(g2
(I0
tp11068
g4
tp11069
Rp11070
(I1
(I1
tp11071
g11
I00
S'\x00\x00\x00\x00\x00\x00\xf0?'
p11072
tp11073
bg1
(g2
(I0
tp11074
g4
tp11075
Rp11076
(I1
(I1
tp11077
g11
I00
S'\xb2\x9c\x04\x10\xa1L\xdf?'
p11078
tp11079
bg1
(g2
(I0
tp11080
g4
tp11081
Rp11082
(I1
(I1
tp11083
g11
I00
S'\xbf_\xd3B\xe4F\xdd?'
p11084
tp11085
btp11086
a(g1
(g2
(I0
tp11087
g4
tp11088
Rp11089
(I1
(I1
tp11090
g11
I00
S'\x00\x00\x00\x00\x00\x00\xf0?'
p11091
tp11092
bg1
(g2
(I0
tp11093
g4
tp11094
Rp11095
(I1
(I1
tp11096
g11
I00
S'\xc1\xcf\x00\x1f\xebL\xdf?'
p11097
tp11098
bg1
(g2
(I0
tp11099
g4
tp11100
Rp11101
(I1
(I1
tp11102
g11
I00
S'\x08\x08D\xe5(G\xdd?'
p11103
tp11104
btp11105
a(g1
(g2
(I0
tp11106
g4
tp11107
Rp11108
(I1
(I1
tp11109
g11
I00
S'\x00\x00\x00\x00\x00\x00\xf0?'
p11110
tp11111
bg1
(g2
(I0
tp11112
g4
tp11113
Rp11114
(I1
(I1
tp11115
g11
I00
S'\xa5\x1a8\x08\x9bM\xdf?'
p11116
tp11117
bg1
(g2
(I0
tp11118
g4
tp11119
Rp11120
(I1
(I1
tp11121
g11
I00
S'$\xb3\x8f\xec\xcbG\xdd?'
p11122
tp11123
btp11124
a(g1
(g2
(I0
tp11125
g4
tp11126
Rp11127
(I1
(I1
tp11128
g11
I00
S'\x00\x00\x00\x00\x00\x00\xf0?'
p11129
tp11130
bg1
(g2
(I0
tp11131
g4
tp11132
Rp11133
(I1
(I1
tp11134
g11
I00
S'\xbc\xd6a}\xa5L\xdf?'
p11135
tp11136
bg1
(g2
(I0
tp11137
g4
tp11138
Rp11139
(I1
(I1
tp11140
g11
I00
S'\xceO.]\xe8F\xdd?'
p11141
tp11142
btp11143
a(g1
(g2
(I0
tp11144
g4
tp11145
Rp11146
(I1
(I1
tp11147
g11
I00
S'\x00\x00\x00\x00\x00\x00\xf0?'
p11148
tp11149
bg1
(g2
(I0
tp11150
g4
tp11151
Rp11152
(I1
(I1
tp11153
g11
I00
S'*\xd4N\r\xa1L\xdf?'
p11154
tp11155
bg1
(g2
(I0
tp11156
g4
tp11157
Rp11158
(I1
(I1
tp11159
g11
I00
S'\x7fgP@\xe4F\xdd?'
p11160
tp11161
btp11162
a(g1
(g2
(I0
tp11163
g4
tp11164
Rp11165
(I1
(I1
tp11166
g11
I00
S'\x00\x00\x00\x00\x00\x00\xf0?'
p11167
tp11168
bg1
(g2
(I0
tp11169
g4
tp11170
Rp11171
(I1
(I1
tp11172
g11
I00
S'\x1d_\xe6\xb6\xd4L\xdf?'
p11173
tp11174
bg1
(g2
(I0
tp11175
g4
tp11176
Rp11177
(I1
(I1
tp11178
g11
I00
S'G\x89C!\x14G\xdd?'
p11179
tp11180
btp11181
a(g1
(g2
(I0
tp11182
g4
tp11183
Rp11184
(I1
(I1
tp11185
g11
I00
S'\x00\x00\x00\x00\x00\x00\xf0?'
p11186
tp11187
bg1
(g2
(I0
tp11188
g4
tp11189
Rp11190
(I1
(I1
tp11191
g11
I00
S'\x17\x85$\xf7\xe4L\xdf?'
p11192
tp11193
bg1
(g2
(I0
tp11194
g4
tp11195
Rp11196
(I1
(I1
tp11197
g11
I00
S'\xc2O\xd10#G\xdd?'
p11198
tp11199
btp11200
a(g1
(g2
(I0
tp11201
g4
tp11202
Rp11203
(I1
(I1
tp11204
g11
I00
S'\x00\x00\x00\x00\x00\x00\xf0?'
p11205
tp11206
bg1
(g2
(I0
tp11207
g4
tp11208
Rp11209
(I1
(I1
tp11210
g11
I00
S'\xa2C\xb7\x06\xaaL\xdf?'
p11211
tp11212
bg1
(g2
(I0
tp11213
g4
tp11214
Rp11215
(I1
(I1
tp11216
g11
I00
S'+\x18u\x91\xecF\xdd?'
p11217
tp11218
btp11219
a(g1
(g2
(I0
tp11220
g4
tp11221
Rp11222
(I1
(I1
tp11223
g11
I00
S'\x00\x00\x00\x00\x00\x00\xf0?'
p11224
tp11225
bg1
(g2
(I0
tp11226
g4
tp11227
Rp11228
(I1
(I1
tp11229
g11
I00
S'M\xe33IgL\xdf?'
p11230
tp11231
bg1
(g2
(I0
tp11232
g4
tp11233
Rp11234
(I1
(I1
tp11235
g11
I00
S'\xdd\xa6T\xb7\xaeF\xdd?'
p11236
tp11237
btp11238
a(g1
(g2
(I0
tp11239
g4
tp11240
Rp11241
(I1
(I1
tp11242
g11
I00
S'\x00\x00\x00\x00\x00\x00\xf0?'
p11243
tp11244
bg1
(g2
(I0
tp11245
g4
tp11246
Rp11247
(I1
(I1
tp11248
g11
I00
S'\x7f"KC\x9bL\xdf?'
p11249
tp11250
bg1
(g2
(I0
tp11251
g4
tp11252
Rp11253
(I1
(I1
tp11254
g11
I00
S'\x923\xd8\xe2\xdeF\xdd?'
p11255
tp11256
btp11257
a(g1
(g2
(I0
tp11258
g4
tp11259
Rp11260
(I1
(I1
tp11261
g11
I00
S'\x00\x00\x00\x00\x00\x00\xf0?'
p11262
tp11263
bg1
(g2
(I0
tp11264
g4
tp11265
Rp11266
(I1
(I1
tp11267
g11
I00
S'\xab\xfb\xbc\xff\xccL\xdf?'
p11268
tp11269
bg1
(g2
(I0
tp11270
g4
tp11271
Rp11272
(I1
(I1
tp11273
g11
I00
S'\xd7\xc0\xc2\xfa\x0cG\xdd?'
p11274
tp11275
btp11276
a(g1
(g2
(I0
tp11277
g4
tp11278
Rp11279
(I1
(I1
tp11280
g11
I00
S'\x00\x00\x00\x00\x00\x00\xf0?'
p11281
tp11282
bg1
(g2
(I0
tp11283
g4
tp11284
Rp11285
(I1
(I1
tp11286
g11
I00
S'\xd0\x89`\x84\x99L\xdf?'
p11287
tp11288
bg1
(g2
(I0
tp11289
g4
tp11290
Rp11291
(I1
(I1
tp11292
g11
I00
S'\xa09\xa9D\xddF\xdd?'
p11293
tp11294
btp11295
a(g1
(g2
(I0
tp11296
g4
tp11297
Rp11298
(I1
(I1
tp11299
g11
I00
S'\x00\x00\x00\x00\x00\x00\xf0?'
p11300
tp11301
bg1
(g2
(I0
tp11302
g4
tp11303
Rp11304
(I1
(I1
tp11305
g11
I00
S'\xcd#\xf7#\x97L\xdf?'
p11306
tp11307
bg1
(g2
(I0
tp11308
g4
tp11309
Rp11310
(I1
(I1
tp11311
g11
I00
S'Iz\xcf\x10\xdbF\xdd?'
p11312
tp11313
btp11314
a(g1
(g2
(I0
tp11315
g4
tp11316
Rp11317
(I1
(I1
tp11318
g11
I00
S'\x00\x00\x00\x00\x00\x00\xf0?'
p11319
tp11320
bg1
(g2
(I0
tp11321
g4
tp11322
Rp11323
(I1
(I1
tp11324
g11
I00
S'Z\x1d*c\xfcL\xdf?'
p11325
tp11326
bg1
(g2
(I0
tp11327
g4
tp11328
Rp11329
(I1
(I1
tp11330
g11
I00
S'_\x11\xb5\xe58G\xdd?'
p11331
tp11332
btp11333
a(g1
(g2
(I0
tp11334
g4
tp11335
Rp11336
(I1
(I1
tp11337
g11
I00
S'\x00\x00\x00\x00\x00\x00\xf0?'
p11338
tp11339
bg1
(g2
(I0
tp11340
g4
tp11341
Rp11342
(I1
(I1
tp11343
g11
I00
S'\xc1U\x81b\x9aL\xdf?'
p11344
tp11345
bg1
(g2
(I0
tp11346
g4
tp11347
Rp11348
(I1
(I1
tp11349
g11
I00
S':&\x85\x12\xdeF\xdd?'
p11350
tp11351
btp11352
a(g1
(g2
(I0
tp11353
g4
tp11354
Rp11355
(I1
(I1
tp11356
g11
I00
S'\x00\x00\x00\x00\x00\x00\xf0?'
p11357
tp11358
bg1
(g2
(I0
tp11359
g4
tp11360
Rp11361
(I1
(I1
tp11362
g11
I00
S"\xe3\x1b'O\x8bL\xdf?"
p11363
tp11364
bg1
(g2
(I0
tp11365
g4
tp11366
Rp11367
(I1
(I1
tp11368
g11
I00
S'T\x9f\xd5\x19\xd0F\xdd?'
p11369
tp11370
btp11371
a(g1
(g2
(I0
tp11372
g4
tp11373
Rp11374
(I1
(I1
tp11375
g11
I00
S'\x00\x00\x00\x00\x00\x00\xf0?'
p11376
tp11377
bg1
(g2
(I0
tp11378
g4
tp11379
Rp11380
(I1
(I1
tp11381
g11
I00
S'\x94\x0fn\xbe\x88L\xdf?'
p11382
tp11383
bg1
(g2
(I0
tp11384
g4
tp11385
Rp11386
(I1
(I1
tp11387
g11
I00
S'\t-6\xb9\xcdF\xdd?'
p11388
tp11389
btp11390
a(g1
(g2
(I0
tp11391
g4
tp11392
Rp11393
(I1
(I1
tp11394
g11
I00
S'\x00\x00\x00\x00\x00\x00\xf0?'
p11395
tp11396
bg1
(g2
(I0
tp11397
g4
tp11398
Rp11399
(I1
(I1
tp11400
g11
I00
S'\x82U\x94v M\xdf?'
p11401
tp11402
bg1
(g2
(I0
tp11403
g4
tp11404
Rp11405
(I1
(I1
tp11406
g11
I00
S'\xf7~\xc2TZG\xdd?'
p11407
tp11408
btp11409
a(g1
(g2
(I0
tp11410
g4
tp11411
Rp11412
(I1
(I1
tp11413
g11
I00
S'\x00\x00\x00\x00\x00\x00\xf0?'
p11414
tp11415
bg1
(g2
(I0
tp11416
g4
tp11417
Rp11418
(I1
(I1
tp11419
g11
I00
S'\x1bk[\xa8\xb3L\xdf?'
p11420
tp11421
bg1
(g2
(I0
tp11422
g4
tp11423
Rp11424
(I1
(I1
tp11425
g11
I00
S'\xd4y\x83~\xf5F\xdd?'
p11426
tp11427
btp11428
a(g1
(g2
(I0
tp11429
g4
tp11430
Rp11431
(I1
(I1
tp11432
g11
I00
S'\x00\x00\x00\x00\x00\x00\xf0?'
p11433
tp11434
bg1
(g2
(I0
tp11435
g4
tp11436
Rp11437
(I1
(I1
tp11438
g11
I00
S'w9D\x93\xebL\xdf?'
p11439
tp11440
bg1
(g2
(I0
tp11441
g4
tp11442
Rp11443
(I1
(I1
tp11444
g11
I00
S'C\xa5\x03Q)G\xdd?'
p11445
tp11446
btp11447
a(g1
(g2
(I0
tp11448
g4
tp11449
Rp11450
(I1
(I1
tp11451
g11
I00
S'\x00\x00\x00\x00\x00\x00\xf0?'
p11452
tp11453
bg1
(g2
(I0
tp11454
g4
tp11455
Rp11456
(I1
(I1
tp11457
g11
I00
S'o\xee\x8d\xa2\xa4L\xdf?'
p11458
tp11459
bg1
(g2
(I0
tp11460
g4
tp11461
Rp11462
(I1
(I1
tp11463
g11
I00
S',]a\x92\xe7F\xdd?'
p11464
tp11465
btp11466
a(g1
(g2
(I0
tp11467
g4
tp11468
Rp11469
(I1
(I1
tp11470
g11
I00
S'\x00\x00\x00\x00\x00\x00\xf0?'
p11471
tp11472
bg1
(g2
(I0
tp11473
g4
tp11474
Rp11475
(I1
(I1
tp11476
g11
I00
S'@]|p\xb2L\xdf?'
p11477
tp11478
bg1
(g2
(I0
tp11479
g4
tp11480
Rp11481
(I1
(I1
tp11482
g11
I00
S'w\xdd{]\xf4F\xdd?'
p11483
tp11484
btp11485
a(g1
(g2
(I0
tp11486
g4
tp11487
Rp11488
(I1
(I1
tp11489
g11
I00
S'\x00\x00\x00\x00\x00\x00\xf0?'
p11490
tp11491
bg1
(g2
(I0
tp11492
g4
tp11493
Rp11494
(I1
(I1
tp11495
g11
I00
S'\xbc\x87\x12\xc7\xd4L\xdf?'
p11496
tp11497
bg1
(g2
(I0
tp11498
g4
tp11499
Rp11500
(I1
(I1
tp11501
g11
I00
S'\xa5y@0\x14G\xdd?'
p11502
tp11503
btp11504
a(g1
(g2
(I0
tp11505
g4
tp11506
Rp11507
(I1
(I1
tp11508
g11
I00
S'\x00\x00\x00\x00\x00\x00\xf0?'
p11509
tp11510
bg1
(g2
(I0
tp11511
g4
tp11512
Rp11513
(I1
(I1
tp11514
g11
I00
S' \x9a\x0f\xb1\xdeL\xdf?'
p11515
tp11516
bg1
(g2
(I0
tp11517
g4
tp11518
Rp11519
(I1
(I1
tp11520
g11
I00
S'Q\xb5\\`\x1dG\xdd?'
p11521
tp11522
btp11523
a(g1
(g2
(I0
tp11524
g4
tp11525
Rp11526
(I1
(I1
tp11527
g11
I00
S'\x00\x00\x00\x00\x00\x00\xf0?'
p11528
tp11529
bg1
(g2
(I0
tp11530
g4
tp11531
Rp11532
(I1
(I1
tp11533
g11
I00
S'\x1b\xee\xe4u\xfdL\xdf?'
p11534
tp11535
bg1
(g2
(I0
tp11536
g4
tp11537
Rp11538
(I1
(I1
tp11539
g11
I00
S'Z\x17Q\xe49G\xdd?'
p11540
tp11541
btp11542
a(g1
(g2
(I0
tp11543
g4
tp11544
Rp11545
(I1
(I1
tp11546
g11
I00
S'\x00\x00\x00\x00\x00\x00\xf0?'
p11547
tp11548
bg1
(g2
(I0
tp11549
g4
tp11550
Rp11551
(I1
(I1
tp11552
g11
I00
S'\xaa.\xdc\xde\xdaL\xdf?'
p11553
tp11554
bg1
(g2
(I0
tp11555
g4
tp11556
Rp11557
(I1
(I1
tp11558
g11
I00
S'\x9d\x92\xcd\xd5\x19G\xdd?'
p11559
tp11560
btp11561
a(g1
(g2
(I0
tp11562
g4
tp11563
Rp11564
(I1
(I1
tp11565
g11
I00
S'\x00\x00\x00\x00\x00\x00\xf0?'
p11566
tp11567
bg1
(g2
(I0
tp11568
g4
tp11569
Rp11570
(I1
(I1
tp11571
g11
I00
S'\x86(\xd7I\xaaL\xdf?'
p11572
tp11573
bg1
(g2
(I0
tp11574
g4
tp11575
Rp11576
(I1
(I1
tp11577
g11
I00
S'\xf9l\xaa\xcf\xecF\xdd?'
p11578
tp11579
btp11580
a(g1
(g2
(I0
tp11581
g4
tp11582
Rp11583
(I1
(I1
tp11584
g11
I00
S'\x00\x00\x00\x00\x00\x00\xf0?'
p11585
tp11586
bg1
(g2
(I0
tp11587
g4
tp11588
Rp11589
(I1
(I1
tp11590
g11
I00
S')\xdcf\xe9\xe6L\xdf?'
p11591
tp11592
bg1
(g2
(I0
tp11593
g4
tp11594
Rp11595
(I1
(I1
tp11596
g11
I00
S'1\xda\x95\xfe$G\xdd?'
p11597
tp11598
btp11599
a(g1
(g2
(I0
tp11600
g4
tp11601
Rp11602
(I1
(I1
tp11603
g11
I00
S'\x00\x00\x00\x00\x00\x00\xf0?'
p11604
tp11605
bg1
(g2
(I0
tp11606
g4
tp11607
Rp11608
(I1
(I1
tp11609
g11
I00
S'\x02\xbe\xdbz\xc4L\xdf?'
p11610
tp11611
bg1
(g2
(I0
tp11612
g4
tp11613
Rp11614
(I1
(I1
tp11615
g11
I00
S'\xbcc\x9b\x15\x05G\xdd?'
p11616
tp11617
btp11618
a(g1
(g2
(I0
tp11619
g4
tp11620
Rp11621
(I1
(I1
tp11622
g11
I00
S'\x00\x00\x00\x00\x00\x00\xf0?'
p11623
tp11624
bg1
(g2
(I0
tp11625
g4
tp11626
Rp11627
(I1
(I1
tp11628
g11
I00
S'\xd0\xf6E7\x1cM\xdf?'
p11629
tp11630
bg1
(g2
(I0
tp11631
g4
tp11632
Rp11633
(I1
(I1
tp11634
g11
I00
S'\xc3\x18\x15eVG\xdd?'
p11635
tp11636
btp11637
a(g1
(g2
(I0
tp11638
g4
tp11639
Rp11640
(I1
(I1
tp11641
g11
I00
S'\x00\x00\x00\x00\x00\x00\xf0?'
p11642
tp11643
bg1
(g2
(I0
tp11644
g4
tp11645
Rp11646
(I1
(I1
tp11647
g11
I00
S'\x96_\x97d\x9dL\xdf?'
p11648
tp11649
bg1
(g2
(I0
tp11650
g4
tp11651
Rp11652
(I1
(I1
tp11653
g11
I00
S'.24\xdc\xe0F\xdd?'
p11654
tp11655
btp11656
a(g1
(g2
(I0
tp11657
g4
tp11658
Rp11659
(I1
(I1
tp11660
g11
I00
S'\x00\x00\x00\x00\x00\x00\xf0?'
p11661
tp11662
bg1
(g2
(I0
tp11663
g4
tp11664
Rp11665
(I1
(I1
tp11666
g11
I00
S'5\x92q3?M\xdf?'
p11667
tp11668
bg1
(g2
(I0
tp11669
g4
tp11670
Rp11671
(I1
(I1
tp11672
g11
I00
S'o\xefZ\xd1vG\xdd?'
p11673
tp11674
btp11675
a(g1
(g2
(I0
tp11676
g4
tp11677
Rp11678
(I1
(I1
tp11679
g11
I00
S'\x00\x00\x00\x00\x00\x00\xf0?'
p11680
tp11681
bg1
(g2
(I0
tp11682
g4
tp11683
Rp11684
(I1
(I1
tp11685
g11
I00
S'33\xa0RPM\xdf?'
p11686
tp11687
bg1
(g2
(I0
tp11688
g4
tp11689
Rp11690
(I1
(I1
tp11691
g11
I00
S';g\x8b\xaf\x86G\xdd?'
p11692
tp11693
btp11694
a(g1
(g2
(I0
tp11695
g4
tp11696
Rp11697
(I1
(I1
tp11698
g11
I00
S'\x00\x00\x00\x00\x00\x00\xf0?'
p11699
tp11700
bg1
(g2
(I0
tp11701
g4
tp11702
Rp11703
(I1
(I1
tp11704
g11
I00
S'\xadF\xdd9\x91L\xdf?'
p11705
tp11706
bg1
(g2
(I0
tp11707
g4
tp11708
Rp11709
(I1
(I1
tp11710
g11
I00
S']\xeb\x9a\x95\xd5F\xdd?'
p11711
tp11712
btp11713
a(g1
(g2
(I0
tp11714
g4
tp11715
Rp11716
(I1
(I1
tp11717
g11
I00
S'\x00\x00\x00\x00\x00\x00\xf0?'
p11718
tp11719
bg1
(g2
(I0
tp11720
g4
tp11721
Rp11722
(I1
(I1
tp11723
g11
I00
S'\x13\xdb1\x89\xa9L\xdf?'
p11724
tp11725
bg1
(g2
(I0
tp11726
g4
tp11727
Rp11728
(I1
(I1
tp11729
g11
I00
S'\x19*!\x1d\xecF\xdd?'
p11730
tp11731
btp11732
a(g1
(g2
(I0
tp11733
g4
tp11734
Rp11735
(I1
(I1
tp11736
g11
I00
S'\x00\x00\x00\x00\x00\x00\xf0?'
p11737
tp11738
bg1
(g2
(I0
tp11739
g4
tp11740
Rp11741
(I1
(I1
tp11742
g11
I00
S'\x91\xec\x1a_\x8fL\xdf?'
p11743
tp11744
bg1
(g2
(I0
tp11745
g4
tp11746
Rp11747
(I1
(I1
tp11748
g11
I00
S'`L\x9e\xdd\xd3F\xdd?'
p11749
tp11750
btp11751
a(g1
(g2
(I0
tp11752
g4
tp11753
Rp11754
(I1
(I1
tp11755
g11
I00
S'\x00\x00\x00\x00\x00\x00\xf0?'
p11756
tp11757
bg1
(g2
(I0
tp11758
g4
tp11759
Rp11760
(I1
(I1
tp11761
g11
I00
S'O\xb0\x0b\xca\x98L\xdf?'
p11762
tp11763
bg1
(g2
(I0
tp11764
g4
tp11765
Rp11766
(I1
(I1
tp11767
g11
I00
S'(\x11\xfa\x97\xdcF\xdd?'
p11768
tp11769
btp11770
a(g1
(g2
(I0
tp11771
g4
tp11772
Rp11773
(I1
(I1
tp11774
g11
I00
S'\x00\x00\x00\x00\x00\x00\xf0?'
p11775
tp11776
bg1
(g2
(I0
tp11777
g4
tp11778
Rp11779
(I1
(I1
tp11780
g11
I00
S'\xa4\xd1\x1b3\xa1L\xdf?'
p11781
tp11782
bg1
(g2
(I0
tp11783
g4
tp11784
Rp11785
(I1
(I1
tp11786
g11
I00
S'\x9b\xa3Xc\xe4F\xdd?'
p11787
tp11788
btp11789
a(g1
(g2
(I0
tp11790
g4
tp11791
Rp11792
(I1
(I1
tp11793
g11
I00
S'\x00\x00\x00\x00\x00\x00\xf0?'
p11794
tp11795
bg1
(g2
(I0
tp11796
g4
tp11797
Rp11798
(I1
(I1
tp11799
g11
I00
S'\xa9&\nM\x8dM\xdf?'
p11800
tp11801
bg1
(g2
(I0
tp11802
g4
tp11803
Rp11804
(I1
(I1
tp11805
g11
I00
S'\xfap\xcb2\xbfG\xdd?'
p11806
tp11807
btp11808
a(g1
(g2
(I0
tp11809
g4
tp11810
Rp11811
(I1
(I1
tp11812
g11
I00
S'\x00\x00\x00\x00\x00\x00\xf0?'
p11813
tp11814
bg1
(g2
(I0
tp11815
g4
tp11816
Rp11817
(I1
(I1
tp11818
g11
I00
S'\xf7\xf4~r\xb0M\xdf?'
p11819
tp11820
bg1
(g2
(I0
tp11821
g4
tp11822
Rp11823
(I1
(I1
tp11824
g11
I00
S'\xb1\xb5a\xc5\xdfG\xdd?'
p11825
tp11826
btp11827
a(g1
(g2
(I0
tp11828
g4
tp11829
Rp11830
(I1
(I1
tp11831
g11
I00
S'\x00\x00\x00\x00\x00\x00\xf0?'
p11832
tp11833
bg1
(g2
(I0
tp11834
g4
tp11835
Rp11836
(I1
(I1
tp11837
g11
I00
S'\xf1B\xb0\x06uL\xdf?'
p11838
tp11839
bg1
(g2
(I0
tp11840
g4
tp11841
Rp11842
(I1
(I1
tp11843
g11
I00
S'\x99\xa1.s\xbbF\xdd?'
p11844
tp11845
btp11846
a(g1
(g2
(I0
tp11847
g4
tp11848
Rp11849
(I1
(I1
tp11850
g11
I00
S'\x00\x00\x00\x00\x00\x00\xf0?'
p11851
tp11852
bg1
(g2
(I0
tp11853
g4
tp11854
Rp11855
(I1
(I1
tp11856
g11
I00
S'3]Y\x80\x88L\xdf?'
p11857
tp11858
bg1
(g2
(I0
tp11859
g4
tp11860
Rp11861
(I1
(I1
tp11862
g11
I00
S'.\x80\xad\x7f\xcdF\xdd?'
p11863
tp11864
btp11865
a(g1
(g2
(I0
tp11866
g4
tp11867
Rp11868
(I1
(I1
tp11869
g11
I00
S'\x00\x00\x00\x00\x00\x00\xf0?'
p11870
tp11871
bg1
(g2
(I0
tp11872
g4
tp11873
Rp11874
(I1
(I1
tp11875
g11
I00
S'S\x16\x9f\x12\x9aL\xdf?'
p11876
tp11877
bg1
(g2
(I0
tp11878
g4
tp11879
Rp11880
(I1
(I1
tp11881
g11
I00
S'"\xb6|\xc8\xddF\xdd?'
p11882
tp11883
btp11884
a(g1
(g2
(I0
tp11885
g4
tp11886
Rp11887
(I1
(I1
tp11888
g11
I00
S'\x00\x00\x00\x00\x00\x00\xf0?'
p11889
tp11890
bg1
(g2
(I0
tp11891
g4
tp11892
Rp11893
(I1
(I1
tp11894
g11
I00
S'm|>h\xadL\xdf?'
p11895
tp11896
bg1
(g2
(I0
tp11897
g4
tp11898
Rp11899
(I1
(I1
tp11900
g11
I00
S'n\xfa\x97\xb3\xefF\xdd?'
p11901
tp11902
btp11903
a(g1
(g2
(I0
tp11904
g4
tp11905
Rp11906
(I1
(I1
tp11907
g11
I00
S'\x00\x00\x00\x00\x00\x00\xf0?'
p11908
tp11909
bg1
(g2
(I0
tp11910
g4
tp11911
Rp11912
(I1
(I1
tp11913
g11
I00
S'\x80\xa2l:wL\xdf?'
p11914
tp11915
bg1
(g2
(I0
tp11916
g4
tp11917
Rp11918
(I1
(I1
tp11919
g11
I00
S'%\xc5\xa0}\xbdF\xdd?'
p11920
tp11921
btp11922
a(g1
(g2
(I0
tp11923
g4
tp11924
Rp11925
(I1
(I1
tp11926
g11
I00
S'\x00\x00\x00\x00\x00\x00\xf0?'
p11927
tp11928
bg1
(g2
(I0
tp11929
g4
tp11930
Rp11931
(I1
(I1
tp11932
g11
I00
S'4\xc4F\xf6\x10M\xdf?'
p11933
tp11934
bg1
(g2
(I0
tp11935
g4
tp11936
Rp11937
(I1
(I1
tp11938
g11
I00
S'\xc8\x87\x13\xf7KG\xdd?'
p11939
tp11940
btp11941
a(g1
(g2
(I0
tp11942
g4
tp11943
Rp11944
(I1
(I1
tp11945
g11
I00
S'\x00\x00\x00\x00\x00\x00\xf0?'
p11946
tp11947
bg1
(g2
(I0
tp11948
g4
tp11949
Rp11950
(I1
(I1
tp11951
g11
I00
S'r\xa2uteL\xdf?'
p11952
tp11953
bg1
(g2
(I0
tp11954
g4
tp11955
Rp11956
(I1
(I1
tp11957
g11
I00
S'\xc5\x95\xeb\x04\xadF\xdd?'
p11958
tp11959
btp11960
a(g1
(g2
(I0
tp11961
g4
tp11962
Rp11963
(I1
(I1
tp11964
g11
I00
S'\x00\x00\x00\x00\x00\x00\xf0?'
p11965
tp11966
bg1
(g2
(I0
tp11967
g4
tp11968
Rp11969
(I1
(I1
tp11970
g11
I00
S'\xb2\xa9eQ\xe6L\xdf?'
p11971
tp11972
bg1
(g2
(I0
tp11973
g4
tp11974
Rp11975
(I1
(I1
tp11976
g11
I00
S'!\x92\xb6q$G\xdd?'
p11977
tp11978
btp11979
a(g1
(g2
(I0
tp11980
g4
tp11981
Rp11982
(I1
(I1
tp11983
g11
I00
S'\x00\x00\x00\x00\x00\x00\xf0?'
p11984
tp11985
bg1
(g2
(I0
tp11986
g4
tp11987
Rp11988
(I1
(I1
tp11989
g11
I00
S'8\xc0\x05k\xb1L\xdf?'
p11990
tp11991
bg1
(g2
(I0
tp11992
g4
tp11993
Rp11994
(I1
(I1
tp11995
g11
I00
S'\x99\x92+k\xf3F\xdd?'
p11996
tp11997
btp11998
a.